Archive member included to satisfy reference by file (symbol)

examples/libexamples.a(LCD_2in_test.c.obj)
                              CMakeFiles/main.dir/main.c.obj (LCD_2in_test)
lib/LCD/libLCD.a(LCD_2in.c.obj)
                              examples/libexamples.a(LCD_2in_test.c.obj) (LCD_2IN)
lib/Infrared/libInfrared.a(Infrared.c.obj)
                              examples/libexamples.a(LCD_2in_test.c.obj) (SET_Infrared_PIN)
lib/GUI/libGUI.a(GUI_Paint.c.obj)
                              examples/libexamples.a(LCD_2in_test.c.obj) (Paint_NewImage)
lib/Fonts/libFonts.a(font20.c.obj)
                              examples/libexamples.a(LCD_2in_test.c.obj) (Font20)
lib/Fonts/libFonts.a(font8.c.obj)
                              examples/libexamples.a(LCD_2in_test.c.obj) (Font8)
lib/Config/libConfig.a(DEV_Config.c.obj)
                              lib/LCD/libLCD.a(LCD_2in.c.obj) (DEV_Digital_Write)
/usr/lib/gcc/arm-none-eabi/9.2.1/thumb/v6-m/nofp/libgcc.a(_dvmd_tls.o)
                              CMakeFiles/main.dir/home/iwo/pico/pico-sdk/src/rp2_common/pico_divider/divider.S.obj (__aeabi_idiv0)
/usr/lib/gcc/arm-none-eabi/9.2.1/../../../arm-none-eabi/lib/thumb/v6-m/nofp/libg.a(lib_a-atexit.o)
                              /usr/lib/gcc/arm-none-eabi/9.2.1/../../../arm-none-eabi/lib/thumb/v6-m/nofp/crt0.o (atexit)
/usr/lib/gcc/arm-none-eabi/9.2.1/../../../arm-none-eabi/lib/thumb/v6-m/nofp/libg.a(lib_a-calloc.o)
                              CMakeFiles/main.dir/home/iwo/pico/pico-sdk/src/rp2_common/pico_malloc/pico_malloc.c.obj (calloc)
/usr/lib/gcc/arm-none-eabi/9.2.1/../../../arm-none-eabi/lib/thumb/v6-m/nofp/libg.a(lib_a-callocr.o)
                              /usr/lib/gcc/arm-none-eabi/9.2.1/../../../arm-none-eabi/lib/thumb/v6-m/nofp/libg.a(lib_a-calloc.o) (_calloc_r)
/usr/lib/gcc/arm-none-eabi/9.2.1/../../../arm-none-eabi/lib/thumb/v6-m/nofp/libg.a(lib_a-ctype_.o)
                              CMakeFiles/main.dir/home/iwo/pico/pico-sdk/lib/tinyusb/src/tusb.c.obj (_ctype_)
/usr/lib/gcc/arm-none-eabi/9.2.1/../../../arm-none-eabi/lib/thumb/v6-m/nofp/libg.a(lib_a-fini.o)
                              /usr/lib/gcc/arm-none-eabi/9.2.1/../../../arm-none-eabi/lib/thumb/v6-m/nofp/crt0.o (__libc_fini_array)
/usr/lib/gcc/arm-none-eabi/9.2.1/../../../arm-none-eabi/lib/thumb/v6-m/nofp/libg.a(lib_a-impure.o)
                              /usr/lib/gcc/arm-none-eabi/9.2.1/../../../arm-none-eabi/lib/thumb/v6-m/nofp/libg.a(lib_a-calloc.o) (_impure_ptr)
/usr/lib/gcc/arm-none-eabi/9.2.1/../../../arm-none-eabi/lib/thumb/v6-m/nofp/libg.a(lib_a-init.o)
                              /usr/lib/gcc/arm-none-eabi/9.2.1/../../../arm-none-eabi/lib/thumb/v6-m/nofp/crt0.o (__libc_init_array)
/usr/lib/gcc/arm-none-eabi/9.2.1/../../../arm-none-eabi/lib/thumb/v6-m/nofp/libg.a(lib_a-itoa.o)
                              examples/libexamples.a(LCD_2in_test.c.obj) (itoa)
/usr/lib/gcc/arm-none-eabi/9.2.1/../../../arm-none-eabi/lib/thumb/v6-m/nofp/libg.a(lib_a-malloc.o)
                              CMakeFiles/main.dir/home/iwo/pico/pico-sdk/src/rp2_common/pico_malloc/pico_malloc.c.obj (malloc)
/usr/lib/gcc/arm-none-eabi/9.2.1/../../../arm-none-eabi/lib/thumb/v6-m/nofp/libg.a(lib_a-mallocr.o)
                              /usr/lib/gcc/arm-none-eabi/9.2.1/../../../arm-none-eabi/lib/thumb/v6-m/nofp/libg.a(lib_a-callocr.o) (_malloc_r)
/usr/lib/gcc/arm-none-eabi/9.2.1/../../../arm-none-eabi/lib/thumb/v6-m/nofp/libg.a(lib_a-mlock.o)
                              /usr/lib/gcc/arm-none-eabi/9.2.1/../../../arm-none-eabi/lib/thumb/v6-m/nofp/libg.a(lib_a-mallocr.o) (__malloc_lock)
/usr/lib/gcc/arm-none-eabi/9.2.1/../../../arm-none-eabi/lib/thumb/v6-m/nofp/libg.a(lib_a-sbrkr.o)
                              /usr/lib/gcc/arm-none-eabi/9.2.1/../../../arm-none-eabi/lib/thumb/v6-m/nofp/libg.a(lib_a-mallocr.o) (_sbrk_r)
/usr/lib/gcc/arm-none-eabi/9.2.1/../../../arm-none-eabi/lib/thumb/v6-m/nofp/libg.a(lib_a-strlen-stub.o)
                              CMakeFiles/main.dir/home/iwo/pico/pico-sdk/src/rp2_common/pico_stdio/stdio.c.obj (strlen)
/usr/lib/gcc/arm-none-eabi/9.2.1/../../../arm-none-eabi/lib/thumb/v6-m/nofp/libg.a(lib_a-utoa.o)
                              /usr/lib/gcc/arm-none-eabi/9.2.1/../../../arm-none-eabi/lib/thumb/v6-m/nofp/libg.a(lib_a-itoa.o) (__utoa)
/usr/lib/gcc/arm-none-eabi/9.2.1/../../../arm-none-eabi/lib/thumb/v6-m/nofp/libg.a(lib_a-__atexit.o)
                              /usr/lib/gcc/arm-none-eabi/9.2.1/../../../arm-none-eabi/lib/thumb/v6-m/nofp/libg.a(lib_a-atexit.o) (__register_exitproc)
/usr/lib/gcc/arm-none-eabi/9.2.1/../../../arm-none-eabi/lib/thumb/v6-m/nofp/libg.a(lib_a-freer.o)
                              /usr/lib/gcc/arm-none-eabi/9.2.1/../../../arm-none-eabi/lib/thumb/v6-m/nofp/libg.a(lib_a-malloc.o) (_free_r)
/usr/lib/gcc/arm-none-eabi/9.2.1/../../../arm-none-eabi/lib/thumb/v6-m/nofp/libg.a(lib_a-reent.o)
                              /usr/lib/gcc/arm-none-eabi/9.2.1/../../../arm-none-eabi/lib/thumb/v6-m/nofp/libg.a(lib_a-sbrkr.o) (errno)

Allocating common symbols
Common symbol       size              file

sf_table            0x100             CMakeFiles/main.dir/home/iwo/pico/pico-sdk/src/rp2_common/pico_float/float_init_rom.c.obj
LCD_2IN             0x6               lib/LCD/libLCD.a(LCD_2in.c.obj)
errno               0x4               /usr/lib/gcc/arm-none-eabi/9.2.1/../../../arm-none-eabi/lib/thumb/v6-m/nofp/libg.a(lib_a-reent.o)
Infrared_PIN        0x4               lib/Infrared/libInfrared.a(Infrared.c.obj)
_usbd_qdef_buf      0xc0              CMakeFiles/main.dir/home/iwo/pico/pico-sdk/lib/tinyusb/src/device/usbd.c.obj
Paint               0x18              lib/GUI/libGUI.a(GUI_Paint.c.obj)
slice_num           0x4               lib/Config/libConfig.a(DEV_Config.c.obj)
sd_table            0x100             CMakeFiles/main.dir/home/iwo/pico/pico-sdk/src/rp2_common/pico_double/double_init_rom.c.obj
uart_char_to_line_feed
                    0x4               CMakeFiles/main.dir/home/iwo/pico/pico-sdk/src/rp2_common/hardware_uart/uart.c.obj

Discarded input sections

 .text          0x0000000000000000        0x0 /usr/lib/gcc/arm-none-eabi/9.2.1/thumb/v6-m/nofp/crti.o
 .data          0x0000000000000000        0x0 /usr/lib/gcc/arm-none-eabi/9.2.1/thumb/v6-m/nofp/crti.o
 .bss           0x0000000000000000        0x0 /usr/lib/gcc/arm-none-eabi/9.2.1/thumb/v6-m/nofp/crti.o
 .data          0x0000000000000000        0x4 /usr/lib/gcc/arm-none-eabi/9.2.1/thumb/v6-m/nofp/crtbegin.o
 .fini_array    0x0000000000000000        0x4 /usr/lib/gcc/arm-none-eabi/9.2.1/thumb/v6-m/nofp/crtbegin.o
 .text          0x0000000000000000       0x74 /usr/lib/gcc/arm-none-eabi/9.2.1/../../../arm-none-eabi/lib/thumb/v6-m/nofp/crt0.o
 .data          0x0000000000000000        0x0 /usr/lib/gcc/arm-none-eabi/9.2.1/../../../arm-none-eabi/lib/thumb/v6-m/nofp/crt0.o
 .bss           0x0000000000000000        0x0 /usr/lib/gcc/arm-none-eabi/9.2.1/../../../arm-none-eabi/lib/thumb/v6-m/nofp/crt0.o
 .ARM.extab     0x0000000000000000        0x0 /usr/lib/gcc/arm-none-eabi/9.2.1/../../../arm-none-eabi/lib/thumb/v6-m/nofp/crt0.o
 .ARM.exidx     0x0000000000000000       0x10 /usr/lib/gcc/arm-none-eabi/9.2.1/../../../arm-none-eabi/lib/thumb/v6-m/nofp/crt0.o
 .debug_line    0x0000000000000000       0x8c /usr/lib/gcc/arm-none-eabi/9.2.1/../../../arm-none-eabi/lib/thumb/v6-m/nofp/crt0.o
 .debug_info    0x0000000000000000       0x26 /usr/lib/gcc/arm-none-eabi/9.2.1/../../../arm-none-eabi/lib/thumb/v6-m/nofp/crt0.o
 .debug_abbrev  0x0000000000000000       0x14 /usr/lib/gcc/arm-none-eabi/9.2.1/../../../arm-none-eabi/lib/thumb/v6-m/nofp/crt0.o
 .debug_aranges
                0x0000000000000000       0x20 /usr/lib/gcc/arm-none-eabi/9.2.1/../../../arm-none-eabi/lib/thumb/v6-m/nofp/crt0.o
 .debug_str     0x0000000000000000       0x94 /usr/lib/gcc/arm-none-eabi/9.2.1/../../../arm-none-eabi/lib/thumb/v6-m/nofp/crt0.o
 .ARM.attributes
                0x0000000000000000       0x1b /usr/lib/gcc/arm-none-eabi/9.2.1/../../../arm-none-eabi/lib/thumb/v6-m/nofp/crt0.o
 .text          0x0000000000000000        0x0 CMakeFiles/main.dir/main.c.obj
 .data          0x0000000000000000        0x0 CMakeFiles/main.dir/main.c.obj
 .bss           0x0000000000000000        0x0 CMakeFiles/main.dir/main.c.obj
 .text          0x0000000000000000        0x0 CMakeFiles/main.dir/home/iwo/pico/pico-sdk/src/rp2_common/pico_stdlib/stdlib.c.obj
 .data          0x0000000000000000        0x0 CMakeFiles/main.dir/home/iwo/pico/pico-sdk/src/rp2_common/pico_stdlib/stdlib.c.obj
 .bss           0x0000000000000000        0x0 CMakeFiles/main.dir/home/iwo/pico/pico-sdk/src/rp2_common/pico_stdlib/stdlib.c.obj
 .text.set_sys_clock_48mhz
                0x0000000000000000       0x40 CMakeFiles/main.dir/home/iwo/pico/pico-sdk/src/rp2_common/pico_stdlib/stdlib.c.obj
 .text.set_sys_clock_pll
                0x0000000000000000       0x78 CMakeFiles/main.dir/home/iwo/pico/pico-sdk/src/rp2_common/pico_stdlib/stdlib.c.obj
 .text.check_sys_clock_khz
                0x0000000000000000       0xb0 CMakeFiles/main.dir/home/iwo/pico/pico-sdk/src/rp2_common/pico_stdlib/stdlib.c.obj
 .text.setup_default_uart
                0x0000000000000000       0x2c CMakeFiles/main.dir/home/iwo/pico/pico-sdk/src/rp2_common/pico_stdlib/stdlib.c.obj
 .binary_info.__bi_ptr102
                0x0000000000000000        0x4 CMakeFiles/main.dir/home/iwo/pico/pico-sdk/src/rp2_common/pico_stdlib/stdlib.c.obj
 .rodata.__bi_102.5075
                0x0000000000000000        0x8 CMakeFiles/main.dir/home/iwo/pico/pico-sdk/src/rp2_common/pico_stdlib/stdlib.c.obj
 .debug_info    0x0000000000000000      0x780 CMakeFiles/main.dir/home/iwo/pico/pico-sdk/src/rp2_common/pico_stdlib/stdlib.c.obj
 .debug_abbrev  0x0000000000000000      0x20b CMakeFiles/main.dir/home/iwo/pico/pico-sdk/src/rp2_common/pico_stdlib/stdlib.c.obj
 .debug_loc     0x0000000000000000      0x2d7 CMakeFiles/main.dir/home/iwo/pico/pico-sdk/src/rp2_common/pico_stdlib/stdlib.c.obj
 .debug_aranges
                0x0000000000000000       0x38 CMakeFiles/main.dir/home/iwo/pico/pico-sdk/src/rp2_common/pico_stdlib/stdlib.c.obj
 .debug_ranges  0x0000000000000000       0x98 CMakeFiles/main.dir/home/iwo/pico/pico-sdk/src/rp2_common/pico_stdlib/stdlib.c.obj
 .debug_line    0x0000000000000000      0x603 CMakeFiles/main.dir/home/iwo/pico/pico-sdk/src/rp2_common/pico_stdlib/stdlib.c.obj
 .debug_str     0x0000000000000000      0x57b CMakeFiles/main.dir/home/iwo/pico/pico-sdk/src/rp2_common/pico_stdlib/stdlib.c.obj
 .comment       0x0000000000000000       0x5a CMakeFiles/main.dir/home/iwo/pico/pico-sdk/src/rp2_common/pico_stdlib/stdlib.c.obj
 .debug_frame   0x0000000000000000       0x90 CMakeFiles/main.dir/home/iwo/pico/pico-sdk/src/rp2_common/pico_stdlib/stdlib.c.obj
 .ARM.attributes
                0x0000000000000000       0x2c CMakeFiles/main.dir/home/iwo/pico/pico-sdk/src/rp2_common/pico_stdlib/stdlib.c.obj
 .text          0x0000000000000000        0x0 CMakeFiles/main.dir/home/iwo/pico/pico-sdk/src/rp2_common/hardware_gpio/gpio.c.obj
 .data          0x0000000000000000        0x0 CMakeFiles/main.dir/home/iwo/pico/pico-sdk/src/rp2_common/hardware_gpio/gpio.c.obj
 .bss           0x0000000000000000        0x0 CMakeFiles/main.dir/home/iwo/pico/pico-sdk/src/rp2_common/hardware_gpio/gpio.c.obj
 .text.gpio_get_pad
                0x0000000000000000       0x28 CMakeFiles/main.dir/home/iwo/pico/pico-sdk/src/rp2_common/hardware_gpio/gpio.c.obj
 .text.gpio_get_function
                0x0000000000000000       0x14 CMakeFiles/main.dir/home/iwo/pico/pico-sdk/src/rp2_common/hardware_gpio/gpio.c.obj
 .text.gpio_set_irqover
                0x0000000000000000       0x24 CMakeFiles/main.dir/home/iwo/pico/pico-sdk/src/rp2_common/hardware_gpio/gpio.c.obj
 .text.gpio_set_inover
                0x0000000000000000       0x24 CMakeFiles/main.dir/home/iwo/pico/pico-sdk/src/rp2_common/hardware_gpio/gpio.c.obj
 .text.gpio_set_outover
                0x0000000000000000       0x24 CMakeFiles/main.dir/home/iwo/pico/pico-sdk/src/rp2_common/hardware_gpio/gpio.c.obj
 .text.gpio_set_oeover
                0x0000000000000000       0x24 CMakeFiles/main.dir/home/iwo/pico/pico-sdk/src/rp2_common/hardware_gpio/gpio.c.obj
 .text.gpio_set_input_hysteresis_enabled
                0x0000000000000000       0x30 CMakeFiles/main.dir/home/iwo/pico/pico-sdk/src/rp2_common/hardware_gpio/gpio.c.obj
 .text.gpio_is_input_hysteresis_enabled
                0x0000000000000000       0x1c CMakeFiles/main.dir/home/iwo/pico/pico-sdk/src/rp2_common/hardware_gpio/gpio.c.obj
 .text.gpio_set_slew_rate
                0x0000000000000000       0x20 CMakeFiles/main.dir/home/iwo/pico/pico-sdk/src/rp2_common/hardware_gpio/gpio.c.obj
 .text.gpio_get_slew_rate
                0x0000000000000000       0x14 CMakeFiles/main.dir/home/iwo/pico/pico-sdk/src/rp2_common/hardware_gpio/gpio.c.obj
 .text.gpio_set_drive_strength
                0x0000000000000000       0x20 CMakeFiles/main.dir/home/iwo/pico/pico-sdk/src/rp2_common/hardware_gpio/gpio.c.obj
 .text.gpio_get_drive_strength
                0x0000000000000000       0x18 CMakeFiles/main.dir/home/iwo/pico/pico-sdk/src/rp2_common/hardware_gpio/gpio.c.obj
 .text.gpio_acknowledge_irq
                0x0000000000000000       0x18 CMakeFiles/main.dir/home/iwo/pico/pico-sdk/src/rp2_common/hardware_gpio/gpio.c.obj
 .text._gpio_set_irq_enabled
                0x0000000000000000       0x34 CMakeFiles/main.dir/home/iwo/pico/pico-sdk/src/rp2_common/hardware_gpio/gpio.c.obj
 .text.gpio_set_irq_enabled
                0x0000000000000000       0x20 CMakeFiles/main.dir/home/iwo/pico/pico-sdk/src/rp2_common/hardware_gpio/gpio.c.obj
 .text.gpio_set_irq_enabled_with_callback
                0x0000000000000000       0x30 CMakeFiles/main.dir/home/iwo/pico/pico-sdk/src/rp2_common/hardware_gpio/gpio.c.obj
 .text.gpio_set_dormant_irq_enabled
                0x0000000000000000       0x10 CMakeFiles/main.dir/home/iwo/pico/pico-sdk/src/rp2_common/hardware_gpio/gpio.c.obj
 .text.gpio_irq_handler
                0x0000000000000000       0x68 CMakeFiles/main.dir/home/iwo/pico/pico-sdk/src/rp2_common/hardware_gpio/gpio.c.obj
 .text.gpio_set_input_enabled
                0x0000000000000000       0x30 CMakeFiles/main.dir/home/iwo/pico/pico-sdk/src/rp2_common/hardware_gpio/gpio.c.obj
 .text.gpio_init_mask
                0x0000000000000000       0x1e CMakeFiles/main.dir/home/iwo/pico/pico-sdk/src/rp2_common/hardware_gpio/gpio.c.obj
 .text.gpio_debug_pins_init
                0x0000000000000000       0x18 CMakeFiles/main.dir/home/iwo/pico/pico-sdk/src/rp2_common/hardware_gpio/gpio.c.obj
 .bss._callbacks
                0x0000000000000000        0x8 CMakeFiles/main.dir/home/iwo/pico/pico-sdk/src/rp2_common/hardware_gpio/gpio.c.obj
 .text          0x0000000000000000        0x0 CMakeFiles/main.dir/home/iwo/pico/pico-sdk/src/rp2_common/hardware_claim/claim.c.obj
 .data          0x0000000000000000        0x0 CMakeFiles/main.dir/home/iwo/pico/pico-sdk/src/rp2_common/hardware_claim/claim.c.obj
 .bss           0x0000000000000000        0x0 CMakeFiles/main.dir/home/iwo/pico/pico-sdk/src/rp2_common/hardware_claim/claim.c.obj
 .text.hw_is_claimed
                0x0000000000000000       0x16 CMakeFiles/main.dir/home/iwo/pico/pico-sdk/src/rp2_common/hardware_claim/claim.c.obj
 .rodata.hw_claim_clear.str1.4
                0x0000000000000000       0x5e CMakeFiles/main.dir/home/iwo/pico/pico-sdk/src/rp2_common/hardware_claim/claim.c.obj
 .text.hw_claim_clear
                0x0000000000000000       0x40 CMakeFiles/main.dir/home/iwo/pico/pico-sdk/src/rp2_common/hardware_claim/claim.c.obj
 .rodata.__func__.4421
                0x0000000000000000        0xf CMakeFiles/main.dir/home/iwo/pico/pico-sdk/src/rp2_common/hardware_claim/claim.c.obj
 .text          0x0000000000000000        0x0 CMakeFiles/main.dir/home/iwo/pico/pico-sdk/src/rp2_common/pico_platform/platform.c.obj
 .data          0x0000000000000000        0x0 CMakeFiles/main.dir/home/iwo/pico/pico-sdk/src/rp2_common/pico_platform/platform.c.obj
 .bss           0x0000000000000000        0x0 CMakeFiles/main.dir/home/iwo/pico/pico-sdk/src/rp2_common/pico_platform/platform.c.obj
 .rodata.rp2040_chip_version.str1.4
                0x0000000000000000       0x75 CMakeFiles/main.dir/home/iwo/pico/pico-sdk/src/rp2_common/pico_platform/platform.c.obj
 .text.rp2040_chip_version
                0x0000000000000000       0x4c CMakeFiles/main.dir/home/iwo/pico/pico-sdk/src/rp2_common/pico_platform/platform.c.obj
 .rodata.__func__.4295
                0x0000000000000000       0x14 CMakeFiles/main.dir/home/iwo/pico/pico-sdk/src/rp2_common/pico_platform/platform.c.obj
 .text          0x0000000000000000        0x0 CMakeFiles/main.dir/home/iwo/pico/pico-sdk/src/rp2_common/hardware_sync/sync.c.obj
 .data          0x0000000000000000        0x0 CMakeFiles/main.dir/home/iwo/pico/pico-sdk/src/rp2_common/hardware_sync/sync.c.obj
 .bss           0x0000000000000000        0x0 CMakeFiles/main.dir/home/iwo/pico/pico-sdk/src/rp2_common/hardware_sync/sync.c.obj
 .rodata.spin_lock_init.str1.4
                0x0000000000000000       0x58 CMakeFiles/main.dir/home/iwo/pico/pico-sdk/src/rp2_common/hardware_sync/sync.c.obj
 .text.spin_lock_init
                0x0000000000000000       0x34 CMakeFiles/main.dir/home/iwo/pico/pico-sdk/src/rp2_common/hardware_sync/sync.c.obj
 .rodata.spin_lock_claim.str1.4
                0x0000000000000000       0x1f CMakeFiles/main.dir/home/iwo/pico/pico-sdk/src/rp2_common/hardware_sync/sync.c.obj
 .text.spin_lock_claim
                0x0000000000000000       0x18 CMakeFiles/main.dir/home/iwo/pico/pico-sdk/src/rp2_common/hardware_sync/sync.c.obj
 .text.spin_lock_claim_mask
                0x0000000000000000       0x1e CMakeFiles/main.dir/home/iwo/pico/pico-sdk/src/rp2_common/hardware_sync/sync.c.obj
 .text.spin_lock_unclaim
                0x0000000000000000       0x24 CMakeFiles/main.dir/home/iwo/pico/pico-sdk/src/rp2_common/hardware_sync/sync.c.obj
 .text.spin_lock_is_claimed
                0x0000000000000000       0x10 CMakeFiles/main.dir/home/iwo/pico/pico-sdk/src/rp2_common/hardware_sync/sync.c.obj
 .rodata.__func__.4404
                0x0000000000000000        0xf CMakeFiles/main.dir/home/iwo/pico/pico-sdk/src/rp2_common/hardware_sync/sync.c.obj
 .text          0x0000000000000000        0x0 CMakeFiles/main.dir/home/iwo/pico/pico-sdk/src/rp2_common/hardware_uart/uart.c.obj
 .data          0x0000000000000000        0x0 CMakeFiles/main.dir/home/iwo/pico/pico-sdk/src/rp2_common/hardware_uart/uart.c.obj
 .bss           0x0000000000000000        0x0 CMakeFiles/main.dir/home/iwo/pico/pico-sdk/src/rp2_common/hardware_uart/uart.c.obj
 .text.uart_deinit
                0x0000000000000000       0x20 CMakeFiles/main.dir/home/iwo/pico/pico-sdk/src/rp2_common/hardware_uart/uart.c.obj
 .text.uart_set_baudrate
                0x0000000000000000       0x5c CMakeFiles/main.dir/home/iwo/pico/pico-sdk/src/rp2_common/hardware_uart/uart.c.obj
 .text.uart_set_translate_crlf
                0x0000000000000000       0x28 CMakeFiles/main.dir/home/iwo/pico/pico-sdk/src/rp2_common/hardware_uart/uart.c.obj
 .text.uart_init
                0x0000000000000000       0x80 CMakeFiles/main.dir/home/iwo/pico/pico-sdk/src/rp2_common/hardware_uart/uart.c.obj
 .text.uart_is_readable_within_us
                0x0000000000000000       0x20 CMakeFiles/main.dir/home/iwo/pico/pico-sdk/src/rp2_common/hardware_uart/uart.c.obj
 .debug_info    0x0000000000000000      0xb2e CMakeFiles/main.dir/home/iwo/pico/pico-sdk/src/rp2_common/hardware_uart/uart.c.obj
 .debug_abbrev  0x0000000000000000      0x2d8 CMakeFiles/main.dir/home/iwo/pico/pico-sdk/src/rp2_common/hardware_uart/uart.c.obj
 .debug_loc     0x0000000000000000      0x520 CMakeFiles/main.dir/home/iwo/pico/pico-sdk/src/rp2_common/hardware_uart/uart.c.obj
 .debug_aranges
                0x0000000000000000       0x40 CMakeFiles/main.dir/home/iwo/pico/pico-sdk/src/rp2_common/hardware_uart/uart.c.obj
 .debug_ranges  0x0000000000000000       0xf8 CMakeFiles/main.dir/home/iwo/pico/pico-sdk/src/rp2_common/hardware_uart/uart.c.obj
 .debug_line    0x0000000000000000      0x6a0 CMakeFiles/main.dir/home/iwo/pico/pico-sdk/src/rp2_common/hardware_uart/uart.c.obj
 .debug_str     0x0000000000000000      0x536 CMakeFiles/main.dir/home/iwo/pico/pico-sdk/src/rp2_common/hardware_uart/uart.c.obj
 .comment       0x0000000000000000       0x5a CMakeFiles/main.dir/home/iwo/pico/pico-sdk/src/rp2_common/hardware_uart/uart.c.obj
 .debug_frame   0x0000000000000000       0x78 CMakeFiles/main.dir/home/iwo/pico/pico-sdk/src/rp2_common/hardware_uart/uart.c.obj
 .ARM.attributes
                0x0000000000000000       0x2c CMakeFiles/main.dir/home/iwo/pico/pico-sdk/src/rp2_common/hardware_uart/uart.c.obj
 COMMON         0x0000000000000000        0x4 CMakeFiles/main.dir/home/iwo/pico/pico-sdk/src/rp2_common/hardware_uart/uart.c.obj
 .text          0x0000000000000000        0x0 CMakeFiles/main.dir/home/iwo/pico/pico-sdk/src/rp2_common/hardware_divider/divider.S.obj
 .data          0x0000000000000000        0x0 CMakeFiles/main.dir/home/iwo/pico/pico-sdk/src/rp2_common/hardware_divider/divider.S.obj
 .bss           0x0000000000000000        0x0 CMakeFiles/main.dir/home/iwo/pico/pico-sdk/src/rp2_common/hardware_divider/divider.S.obj
 .text.hw_divider_divmod_s32
                0x0000000000000000       0x18 CMakeFiles/main.dir/home/iwo/pico/pico-sdk/src/rp2_common/hardware_divider/divider.S.obj
 .text.hw_divider_divmod_u32
                0x0000000000000000       0x18 CMakeFiles/main.dir/home/iwo/pico/pico-sdk/src/rp2_common/hardware_divider/divider.S.obj
 .text.hw_divider_save_state
                0x0000000000000000       0x1c CMakeFiles/main.dir/home/iwo/pico/pico-sdk/src/rp2_common/hardware_divider/divider.S.obj
 .text.hw_divider_restore_state
                0x0000000000000000       0x14 CMakeFiles/main.dir/home/iwo/pico/pico-sdk/src/rp2_common/hardware_divider/divider.S.obj
 .debug_line    0x0000000000000000       0xc8 CMakeFiles/main.dir/home/iwo/pico/pico-sdk/src/rp2_common/hardware_divider/divider.S.obj
 .debug_info    0x0000000000000000       0x22 CMakeFiles/main.dir/home/iwo/pico/pico-sdk/src/rp2_common/hardware_divider/divider.S.obj
 .debug_abbrev  0x0000000000000000       0x12 CMakeFiles/main.dir/home/iwo/pico/pico-sdk/src/rp2_common/hardware_divider/divider.S.obj
 .debug_aranges
                0x0000000000000000       0x38 CMakeFiles/main.dir/home/iwo/pico/pico-sdk/src/rp2_common/hardware_divider/divider.S.obj
 .debug_str     0x0000000000000000       0x7b CMakeFiles/main.dir/home/iwo/pico/pico-sdk/src/rp2_common/hardware_divider/divider.S.obj
 .debug_ranges  0x0000000000000000       0x30 CMakeFiles/main.dir/home/iwo/pico/pico-sdk/src/rp2_common/hardware_divider/divider.S.obj
 .ARM.attributes
                0x0000000000000000       0x22 CMakeFiles/main.dir/home/iwo/pico/pico-sdk/src/rp2_common/hardware_divider/divider.S.obj
 .text          0x0000000000000000        0x0 CMakeFiles/main.dir/home/iwo/pico/pico-sdk/src/common/pico_time/time.c.obj
 .data          0x0000000000000000        0x0 CMakeFiles/main.dir/home/iwo/pico/pico-sdk/src/common/pico_time/time.c.obj
 .bss           0x0000000000000000        0x0 CMakeFiles/main.dir/home/iwo/pico/pico-sdk/src/common/pico_time/time.c.obj
 .text.repeating_timer_callback
                0x0000000000000000       0x40 CMakeFiles/main.dir/home/iwo/pico/pico-sdk/src/common/pico_time/time.c.obj
 .text.alarm_pool_dump_key
                0x0000000000000000       0x70 CMakeFiles/main.dir/home/iwo/pico/pico-sdk/src/common/pico_time/time.c.obj
 .text.alarm_pool_create
                0x0000000000000000       0x40 CMakeFiles/main.dir/home/iwo/pico/pico-sdk/src/common/pico_time/time.c.obj
 .rodata.alarm_pool_destroy.str1.4
                0x0000000000000000       0x30 CMakeFiles/main.dir/home/iwo/pico/pico-sdk/src/common/pico_time/time.c.obj
 .text.alarm_pool_destroy
                0x0000000000000000       0x78 CMakeFiles/main.dir/home/iwo/pico/pico-sdk/src/common/pico_time/time.c.obj
 .text.alarm_pool_hardware_alarm_num
                0x0000000000000000        0x4 CMakeFiles/main.dir/home/iwo/pico/pico-sdk/src/common/pico_time/time.c.obj
 .text.alarm_pool_add_repeating_timer_us
                0x0000000000000000       0x98 CMakeFiles/main.dir/home/iwo/pico/pico-sdk/src/common/pico_time/time.c.obj
 .text.cancel_repeating_timer
                0x0000000000000000       0x1a CMakeFiles/main.dir/home/iwo/pico/pico-sdk/src/common/pico_time/time.c.obj
 .text.alarm_pool_dump
                0x0000000000000000       0x34 CMakeFiles/main.dir/home/iwo/pico/pico-sdk/src/common/pico_time/time.c.obj
 .rodata.__func__.6340
                0x0000000000000000       0x13 CMakeFiles/main.dir/home/iwo/pico/pico-sdk/src/common/pico_time/time.c.obj
 .rodata.__func__.6378
                0x0000000000000000       0x19 CMakeFiles/main.dir/home/iwo/pico/pico-sdk/src/common/pico_time/time.c.obj
 .rodata.at_the_end_of_time
                0x0000000000000000        0x8 CMakeFiles/main.dir/home/iwo/pico/pico-sdk/src/common/pico_time/time.c.obj
 .rodata.nil_time
                0x0000000000000000        0x8 CMakeFiles/main.dir/home/iwo/pico/pico-sdk/src/common/pico_time/time.c.obj
 .text          0x0000000000000000        0x0 CMakeFiles/main.dir/home/iwo/pico/pico-sdk/src/common/pico_time/timeout_helper.c.obj
 .data          0x0000000000000000        0x0 CMakeFiles/main.dir/home/iwo/pico/pico-sdk/src/common/pico_time/timeout_helper.c.obj
 .bss           0x0000000000000000        0x0 CMakeFiles/main.dir/home/iwo/pico/pico-sdk/src/common/pico_time/timeout_helper.c.obj
 .text.check_single_timeout_us
                0x0000000000000000       0x2c CMakeFiles/main.dir/home/iwo/pico/pico-sdk/src/common/pico_time/timeout_helper.c.obj
 .rodata.check_per_iteration_timeout_us.str1.4
                0x0000000000000000       0x5e CMakeFiles/main.dir/home/iwo/pico/pico-sdk/src/common/pico_time/timeout_helper.c.obj
 .text.check_per_iteration_timeout_us
                0x0000000000000000       0x88 CMakeFiles/main.dir/home/iwo/pico/pico-sdk/src/common/pico_time/timeout_helper.c.obj
 .text.init_single_timeout_until
                0x0000000000000000        0xc CMakeFiles/main.dir/home/iwo/pico/pico-sdk/src/common/pico_time/timeout_helper.c.obj
 .text.init_per_iteration_timeout_us
                0x0000000000000000       0x64 CMakeFiles/main.dir/home/iwo/pico/pico-sdk/src/common/pico_time/timeout_helper.c.obj
 .rodata.__func__.4193
                0x0000000000000000       0x15 CMakeFiles/main.dir/home/iwo/pico/pico-sdk/src/common/pico_time/timeout_helper.c.obj
 .debug_info    0x0000000000000000      0x7fb CMakeFiles/main.dir/home/iwo/pico/pico-sdk/src/common/pico_time/timeout_helper.c.obj
 .debug_abbrev  0x0000000000000000      0x256 CMakeFiles/main.dir/home/iwo/pico/pico-sdk/src/common/pico_time/timeout_helper.c.obj
 .debug_loc     0x0000000000000000      0x464 CMakeFiles/main.dir/home/iwo/pico/pico-sdk/src/common/pico_time/timeout_helper.c.obj
 .debug_aranges
                0x0000000000000000       0x38 CMakeFiles/main.dir/home/iwo/pico/pico-sdk/src/common/pico_time/timeout_helper.c.obj
 .debug_ranges  0x0000000000000000      0x148 CMakeFiles/main.dir/home/iwo/pico/pico-sdk/src/common/pico_time/timeout_helper.c.obj
 .debug_line    0x0000000000000000      0x48e CMakeFiles/main.dir/home/iwo/pico/pico-sdk/src/common/pico_time/timeout_helper.c.obj
 .debug_str     0x0000000000000000      0x408 CMakeFiles/main.dir/home/iwo/pico/pico-sdk/src/common/pico_time/timeout_helper.c.obj
 .comment       0x0000000000000000       0x5a CMakeFiles/main.dir/home/iwo/pico/pico-sdk/src/common/pico_time/timeout_helper.c.obj
 .debug_frame   0x0000000000000000       0x6c CMakeFiles/main.dir/home/iwo/pico/pico-sdk/src/common/pico_time/timeout_helper.c.obj
 .ARM.attributes
                0x0000000000000000       0x2c CMakeFiles/main.dir/home/iwo/pico/pico-sdk/src/common/pico_time/timeout_helper.c.obj
 .text          0x0000000000000000        0x0 CMakeFiles/main.dir/home/iwo/pico/pico-sdk/src/rp2_common/hardware_timer/timer.c.obj
 .data          0x0000000000000000        0x0 CMakeFiles/main.dir/home/iwo/pico/pico-sdk/src/rp2_common/hardware_timer/timer.c.obj
 .bss           0x0000000000000000        0x0 CMakeFiles/main.dir/home/iwo/pico/pico-sdk/src/rp2_common/hardware_timer/timer.c.obj
 .text.hardware_alarm_unclaim
                0x0000000000000000       0x10 CMakeFiles/main.dir/home/iwo/pico/pico-sdk/src/rp2_common/hardware_timer/timer.c.obj
 .text.hardware_alarm_is_claimed
                0x0000000000000000       0x10 CMakeFiles/main.dir/home/iwo/pico/pico-sdk/src/rp2_common/hardware_timer/timer.c.obj
 .rodata.busy_wait_us.str1.4
                0x0000000000000000       0x5e CMakeFiles/main.dir/home/iwo/pico/pico-sdk/src/rp2_common/hardware_timer/timer.c.obj
 .text.busy_wait_us
                0x0000000000000000       0x48 CMakeFiles/main.dir/home/iwo/pico/pico-sdk/src/rp2_common/hardware_timer/timer.c.obj
 .text.busy_wait_us_32
                0x0000000000000000       0x24 CMakeFiles/main.dir/home/iwo/pico/pico-sdk/src/rp2_common/hardware_timer/timer.c.obj
 .text.busy_wait_ms
                0x0000000000000000       0x30 CMakeFiles/main.dir/home/iwo/pico/pico-sdk/src/rp2_common/hardware_timer/timer.c.obj
 .rodata.__func__.4193
                0x0000000000000000       0x15 CMakeFiles/main.dir/home/iwo/pico/pico-sdk/src/rp2_common/hardware_timer/timer.c.obj
 .text          0x0000000000000000        0x0 CMakeFiles/main.dir/home/iwo/pico/pico-sdk/src/common/pico_sync/sem.c.obj
 .data          0x0000000000000000        0x0 CMakeFiles/main.dir/home/iwo/pico/pico-sdk/src/common/pico_sync/sem.c.obj
 .bss           0x0000000000000000        0x0 CMakeFiles/main.dir/home/iwo/pico/pico-sdk/src/common/pico_sync/sem.c.obj
 .text.sem_init
                0x0000000000000000       0x1e CMakeFiles/main.dir/home/iwo/pico/pico-sdk/src/common/pico_sync/sem.c.obj
 .time_critical.sem_available
                0x0000000000000000        0x6 CMakeFiles/main.dir/home/iwo/pico/pico-sdk/src/common/pico_sync/sem.c.obj
 .time_critical.sem_acquire_blocking
                0x0000000000000000       0x42 CMakeFiles/main.dir/home/iwo/pico/pico-sdk/src/common/pico_sync/sem.c.obj
 .time_critical.sem_acquire_block_until
                0x0000000000000000       0x58 CMakeFiles/main.dir/home/iwo/pico/pico-sdk/src/common/pico_sync/sem.c.obj
 .rodata.str1.4
                0x0000000000000000       0xbf CMakeFiles/main.dir/home/iwo/pico/pico-sdk/src/common/pico_sync/sem.c.obj
 .time_critical.sem_acquire_timeout_ms
                0x0000000000000000       0x78 CMakeFiles/main.dir/home/iwo/pico/pico-sdk/src/common/pico_sync/sem.c.obj
 .time_critical.sem_acquire_timeout_us
                0x0000000000000000       0x5c CMakeFiles/main.dir/home/iwo/pico/pico-sdk/src/common/pico_sync/sem.c.obj
 .time_critical.sem_release
                0x0000000000000000       0x4a CMakeFiles/main.dir/home/iwo/pico/pico-sdk/src/common/pico_sync/sem.c.obj
 .time_critical.sem_reset
                0x0000000000000000       0x68 CMakeFiles/main.dir/home/iwo/pico/pico-sdk/src/common/pico_sync/sem.c.obj
 .rodata.__func__.4193
                0x0000000000000000       0x15 CMakeFiles/main.dir/home/iwo/pico/pico-sdk/src/common/pico_sync/sem.c.obj
 .rodata.__func__.4639
                0x0000000000000000        0xa CMakeFiles/main.dir/home/iwo/pico/pico-sdk/src/common/pico_sync/sem.c.obj
 .debug_info    0x0000000000000000     0x11e3 CMakeFiles/main.dir/home/iwo/pico/pico-sdk/src/common/pico_sync/sem.c.obj
 .debug_abbrev  0x0000000000000000      0x34d CMakeFiles/main.dir/home/iwo/pico/pico-sdk/src/common/pico_sync/sem.c.obj
 .debug_loc     0x0000000000000000      0xa11 CMakeFiles/main.dir/home/iwo/pico/pico-sdk/src/common/pico_sync/sem.c.obj
 .debug_aranges
                0x0000000000000000       0x58 CMakeFiles/main.dir/home/iwo/pico/pico-sdk/src/common/pico_sync/sem.c.obj
 .debug_ranges  0x0000000000000000      0x5b0 CMakeFiles/main.dir/home/iwo/pico/pico-sdk/src/common/pico_sync/sem.c.obj
 .debug_line    0x0000000000000000      0x8af CMakeFiles/main.dir/home/iwo/pico/pico-sdk/src/common/pico_sync/sem.c.obj
 .debug_str     0x0000000000000000      0x4de CMakeFiles/main.dir/home/iwo/pico/pico-sdk/src/common/pico_sync/sem.c.obj
 .comment       0x0000000000000000       0x5a CMakeFiles/main.dir/home/iwo/pico/pico-sdk/src/common/pico_sync/sem.c.obj
 .debug_frame   0x0000000000000000       0xe0 CMakeFiles/main.dir/home/iwo/pico/pico-sdk/src/common/pico_sync/sem.c.obj
 .ARM.attributes
                0x0000000000000000       0x2c CMakeFiles/main.dir/home/iwo/pico/pico-sdk/src/common/pico_sync/sem.c.obj
 .text          0x0000000000000000        0x0 CMakeFiles/main.dir/home/iwo/pico/pico-sdk/src/common/pico_sync/lock_core.c.obj
 .data          0x0000000000000000        0x0 CMakeFiles/main.dir/home/iwo/pico/pico-sdk/src/common/pico_sync/lock_core.c.obj
 .bss           0x0000000000000000        0x0 CMakeFiles/main.dir/home/iwo/pico/pico-sdk/src/common/pico_sync/lock_core.c.obj
 .text          0x0000000000000000        0x0 CMakeFiles/main.dir/home/iwo/pico/pico-sdk/src/common/pico_sync/mutex.c.obj
 .data          0x0000000000000000        0x0 CMakeFiles/main.dir/home/iwo/pico/pico-sdk/src/common/pico_sync/mutex.c.obj
 .bss           0x0000000000000000        0x0 CMakeFiles/main.dir/home/iwo/pico/pico-sdk/src/common/pico_sync/mutex.c.obj
 .time_critical.recursive_mutex_enter_blocking
                0x0000000000000000       0x70 CMakeFiles/main.dir/home/iwo/pico/pico-sdk/src/common/pico_sync/mutex.c.obj
 .time_critical.recursive_mutex_try_enter
                0x0000000000000000       0x70 CMakeFiles/main.dir/home/iwo/pico/pico-sdk/src/common/pico_sync/mutex.c.obj
 .time_critical.mutex_enter_timeout_us
                0x0000000000000000       0x5c CMakeFiles/main.dir/home/iwo/pico/pico-sdk/src/common/pico_sync/mutex.c.obj
 .time_critical.recursive_mutex_enter_block_until
                0x0000000000000000       0xa8 CMakeFiles/main.dir/home/iwo/pico/pico-sdk/src/common/pico_sync/mutex.c.obj
 .time_critical.recursive_mutex_enter_timeout_ms
                0x0000000000000000       0x78 CMakeFiles/main.dir/home/iwo/pico/pico-sdk/src/common/pico_sync/mutex.c.obj
 .time_critical.recursive_mutex_enter_timeout_us
                0x0000000000000000       0x5c CMakeFiles/main.dir/home/iwo/pico/pico-sdk/src/common/pico_sync/mutex.c.obj
 .time_critical.recursive_mutex_exit
                0x0000000000000000       0x7c CMakeFiles/main.dir/home/iwo/pico/pico-sdk/src/common/pico_sync/mutex.c.obj
 .rodata.__func__.4644
                0x0000000000000000       0x1f CMakeFiles/main.dir/home/iwo/pico/pico-sdk/src/common/pico_sync/mutex.c.obj
 .rodata.__func__.4660
                0x0000000000000000       0x1a CMakeFiles/main.dir/home/iwo/pico/pico-sdk/src/common/pico_sync/mutex.c.obj
 .rodata.__func__.4690
                0x0000000000000000       0x22 CMakeFiles/main.dir/home/iwo/pico/pico-sdk/src/common/pico_sync/mutex.c.obj
 .rodata.__func__.4705
                0x0000000000000000       0x15 CMakeFiles/main.dir/home/iwo/pico/pico-sdk/src/common/pico_sync/mutex.c.obj
 .text          0x0000000000000000        0x0 CMakeFiles/main.dir/home/iwo/pico/pico-sdk/src/common/pico_sync/critical_section.c.obj
 .data          0x0000000000000000        0x0 CMakeFiles/main.dir/home/iwo/pico/pico-sdk/src/common/pico_sync/critical_section.c.obj
 .bss           0x0000000000000000        0x0 CMakeFiles/main.dir/home/iwo/pico/pico-sdk/src/common/pico_sync/critical_section.c.obj
 .text.critical_section_deinit
                0x0000000000000000       0x20 CMakeFiles/main.dir/home/iwo/pico/pico-sdk/src/common/pico_sync/critical_section.c.obj
 .text          0x0000000000000000        0x0 CMakeFiles/main.dir/home/iwo/pico/pico-sdk/src/common/pico_util/datetime.c.obj
 .data          0x0000000000000000        0x0 CMakeFiles/main.dir/home/iwo/pico/pico-sdk/src/common/pico_util/datetime.c.obj
 .bss           0x0000000000000000        0x0 CMakeFiles/main.dir/home/iwo/pico/pico-sdk/src/common/pico_util/datetime.c.obj
 .rodata.datetime_to_str.str1.4
                0x0000000000000000       0x19 CMakeFiles/main.dir/home/iwo/pico/pico-sdk/src/common/pico_util/datetime.c.obj
 .text.datetime_to_str
                0x0000000000000000       0x64 CMakeFiles/main.dir/home/iwo/pico/pico-sdk/src/common/pico_util/datetime.c.obj
 .rodata.str1.4
                0x0000000000000000       0xad CMakeFiles/main.dir/home/iwo/pico/pico-sdk/src/common/pico_util/datetime.c.obj
 .rodata.DATETIME_DOWS
                0x0000000000000000       0x1c CMakeFiles/main.dir/home/iwo/pico/pico-sdk/src/common/pico_util/datetime.c.obj
 .rodata.DATETIME_MONTHS
                0x0000000000000000       0x30 CMakeFiles/main.dir/home/iwo/pico/pico-sdk/src/common/pico_util/datetime.c.obj
 .debug_info    0x0000000000000000      0xa81 CMakeFiles/main.dir/home/iwo/pico/pico-sdk/src/common/pico_util/datetime.c.obj
 .debug_abbrev  0x0000000000000000      0x221 CMakeFiles/main.dir/home/iwo/pico/pico-sdk/src/common/pico_util/datetime.c.obj
 .debug_loc     0x0000000000000000       0x7c CMakeFiles/main.dir/home/iwo/pico/pico-sdk/src/common/pico_util/datetime.c.obj
 .debug_aranges
                0x0000000000000000       0x20 CMakeFiles/main.dir/home/iwo/pico/pico-sdk/src/common/pico_util/datetime.c.obj
 .debug_ranges  0x0000000000000000       0x10 CMakeFiles/main.dir/home/iwo/pico/pico-sdk/src/common/pico_util/datetime.c.obj
 .debug_line    0x0000000000000000      0x16d CMakeFiles/main.dir/home/iwo/pico/pico-sdk/src/common/pico_util/datetime.c.obj
 .debug_str     0x0000000000000000      0x5f7 CMakeFiles/main.dir/home/iwo/pico/pico-sdk/src/common/pico_util/datetime.c.obj
 .comment       0x0000000000000000       0x5a CMakeFiles/main.dir/home/iwo/pico/pico-sdk/src/common/pico_util/datetime.c.obj
 .debug_frame   0x0000000000000000       0x38 CMakeFiles/main.dir/home/iwo/pico/pico-sdk/src/common/pico_util/datetime.c.obj
 .ARM.attributes
                0x0000000000000000       0x2c CMakeFiles/main.dir/home/iwo/pico/pico-sdk/src/common/pico_util/datetime.c.obj
 .text          0x0000000000000000        0x0 CMakeFiles/main.dir/home/iwo/pico/pico-sdk/src/common/pico_util/pheap.c.obj
 .data          0x0000000000000000        0x0 CMakeFiles/main.dir/home/iwo/pico/pico-sdk/src/common/pico_util/pheap.c.obj
 .bss           0x0000000000000000        0x0 CMakeFiles/main.dir/home/iwo/pico/pico-sdk/src/common/pico_util/pheap.c.obj
 .rodata.ph_dump_node.str1.4
                0x0000000000000000       0x15 CMakeFiles/main.dir/home/iwo/pico/pico-sdk/src/common/pico_util/pheap.c.obj
 .text.ph_dump_node
                0x0000000000000000       0xb4 CMakeFiles/main.dir/home/iwo/pico/pico-sdk/src/common/pico_util/pheap.c.obj
 .text.ph_create
                0x0000000000000000       0x2c CMakeFiles/main.dir/home/iwo/pico/pico-sdk/src/common/pico_util/pheap.c.obj
 .text.ph_destroy
                0x0000000000000000       0x12 CMakeFiles/main.dir/home/iwo/pico/pico-sdk/src/common/pico_util/pheap.c.obj
 .rodata.ph_dump.str1.4
                0x0000000000000000        0xf CMakeFiles/main.dir/home/iwo/pico/pico-sdk/src/common/pico_util/pheap.c.obj
 .text.ph_dump  0x0000000000000000       0x24 CMakeFiles/main.dir/home/iwo/pico/pico-sdk/src/common/pico_util/pheap.c.obj
 .text          0x0000000000000000        0x0 CMakeFiles/main.dir/home/iwo/pico/pico-sdk/src/common/pico_util/queue.c.obj
 .data          0x0000000000000000        0x0 CMakeFiles/main.dir/home/iwo/pico/pico-sdk/src/common/pico_util/queue.c.obj
 .bss           0x0000000000000000        0x0 CMakeFiles/main.dir/home/iwo/pico/pico-sdk/src/common/pico_util/queue.c.obj
 .rodata.queue_add_internal.str1.4
                0x0000000000000000       0x51 CMakeFiles/main.dir/home/iwo/pico/pico-sdk/src/common/pico_util/queue.c.obj
 .text.queue_add_internal
                0x0000000000000000       0xa0 CMakeFiles/main.dir/home/iwo/pico/pico-sdk/src/common/pico_util/queue.c.obj
 .text.queue_remove_internal
                0x0000000000000000       0xa4 CMakeFiles/main.dir/home/iwo/pico/pico-sdk/src/common/pico_util/queue.c.obj
 .text.queue_peek_internal
                0x0000000000000000       0x94 CMakeFiles/main.dir/home/iwo/pico/pico-sdk/src/common/pico_util/queue.c.obj
 .text.queue_init_with_spinlock
                0x0000000000000000       0x24 CMakeFiles/main.dir/home/iwo/pico/pico-sdk/src/common/pico_util/queue.c.obj
 .text.queue_free
                0x0000000000000000        0xa CMakeFiles/main.dir/home/iwo/pico/pico-sdk/src/common/pico_util/queue.c.obj
 .text.queue_try_add
                0x0000000000000000        0xa CMakeFiles/main.dir/home/iwo/pico/pico-sdk/src/common/pico_util/queue.c.obj
 .text.queue_try_remove
                0x0000000000000000        0xa CMakeFiles/main.dir/home/iwo/pico/pico-sdk/src/common/pico_util/queue.c.obj
 .text.queue_try_peek
                0x0000000000000000        0xa CMakeFiles/main.dir/home/iwo/pico/pico-sdk/src/common/pico_util/queue.c.obj
 .text.queue_add_blocking
                0x0000000000000000        0xa CMakeFiles/main.dir/home/iwo/pico/pico-sdk/src/common/pico_util/queue.c.obj
 .text.queue_remove_blocking
                0x0000000000000000        0xa CMakeFiles/main.dir/home/iwo/pico/pico-sdk/src/common/pico_util/queue.c.obj
 .text.queue_peek_blocking
                0x0000000000000000        0xa CMakeFiles/main.dir/home/iwo/pico/pico-sdk/src/common/pico_util/queue.c.obj
 .rodata.__func__.5436
                0x0000000000000000        0xc CMakeFiles/main.dir/home/iwo/pico/pico-sdk/src/common/pico_util/queue.c.obj
 .debug_info    0x0000000000000000     0x1ab0 CMakeFiles/main.dir/home/iwo/pico/pico-sdk/src/common/pico_util/queue.c.obj
 .debug_abbrev  0x0000000000000000      0x43d CMakeFiles/main.dir/home/iwo/pico/pico-sdk/src/common/pico_util/queue.c.obj
 .debug_loc     0x0000000000000000      0xcdf CMakeFiles/main.dir/home/iwo/pico/pico-sdk/src/common/pico_util/queue.c.obj
 .debug_aranges
                0x0000000000000000       0x70 CMakeFiles/main.dir/home/iwo/pico/pico-sdk/src/common/pico_util/queue.c.obj
 .debug_ranges  0x0000000000000000      0x630 CMakeFiles/main.dir/home/iwo/pico/pico-sdk/src/common/pico_util/queue.c.obj
 .debug_line    0x0000000000000000      0x986 CMakeFiles/main.dir/home/iwo/pico/pico-sdk/src/common/pico_util/queue.c.obj
 .debug_str     0x0000000000000000      0x88d CMakeFiles/main.dir/home/iwo/pico/pico-sdk/src/common/pico_util/queue.c.obj
 .comment       0x0000000000000000       0x5a CMakeFiles/main.dir/home/iwo/pico/pico-sdk/src/common/pico_util/queue.c.obj
 .debug_frame   0x0000000000000000      0x12c CMakeFiles/main.dir/home/iwo/pico/pico-sdk/src/common/pico_util/queue.c.obj
 .ARM.attributes
                0x0000000000000000       0x2c CMakeFiles/main.dir/home/iwo/pico/pico-sdk/src/common/pico_util/queue.c.obj
 .text          0x0000000000000000        0x0 CMakeFiles/main.dir/home/iwo/pico/pico-sdk/src/rp2_common/pico_runtime/runtime.c.obj
 .data          0x0000000000000000        0x0 CMakeFiles/main.dir/home/iwo/pico/pico-sdk/src/rp2_common/pico_runtime/runtime.c.obj
 .bss           0x0000000000000000        0x0 CMakeFiles/main.dir/home/iwo/pico/pico-sdk/src/rp2_common/pico_runtime/runtime.c.obj
 .text.runtime_install_stack_guard
                0x0000000000000000       0x40 CMakeFiles/main.dir/home/iwo/pico/pico-sdk/src/rp2_common/pico_runtime/runtime.c.obj
 .rodata.panic_unsupported.str1.4
                0x0000000000000000        0xe CMakeFiles/main.dir/home/iwo/pico/pico-sdk/src/rp2_common/pico_runtime/runtime.c.obj
 .text.panic_unsupported
                0x0000000000000000        0xc CMakeFiles/main.dir/home/iwo/pico/pico-sdk/src/rp2_common/pico_runtime/runtime.c.obj
 .rodata.hard_assertion_failure.str1.4
                0x0000000000000000        0xc CMakeFiles/main.dir/home/iwo/pico/pico-sdk/src/rp2_common/pico_runtime/runtime.c.obj
 .text.hard_assertion_failure
                0x0000000000000000        0xc CMakeFiles/main.dir/home/iwo/pico/pico-sdk/src/rp2_common/pico_runtime/runtime.c.obj
 .text          0x0000000000000000        0x0 CMakeFiles/main.dir/home/iwo/pico/pico-sdk/src/rp2_common/hardware_clocks/clocks.c.obj
 .data          0x0000000000000000        0x0 CMakeFiles/main.dir/home/iwo/pico/pico-sdk/src/rp2_common/hardware_clocks/clocks.c.obj
 .bss           0x0000000000000000        0x0 CMakeFiles/main.dir/home/iwo/pico/pico-sdk/src/rp2_common/hardware_clocks/clocks.c.obj
 .text.clock_stop
                0x0000000000000000       0x2c CMakeFiles/main.dir/home/iwo/pico/pico-sdk/src/rp2_common/hardware_clocks/clocks.c.obj
 .rodata.clocks_handle_resus.str1.4
                0x0000000000000000       0x8b CMakeFiles/main.dir/home/iwo/pico/pico-sdk/src/rp2_common/hardware_clocks/clocks.c.obj
 .text.clocks_handle_resus
                0x0000000000000000       0x80 CMakeFiles/main.dir/home/iwo/pico/pico-sdk/src/rp2_common/hardware_clocks/clocks.c.obj
 .rodata.clocks_irq_handler.str1.4
                0x0000000000000000       0x17 CMakeFiles/main.dir/home/iwo/pico/pico-sdk/src/rp2_common/hardware_clocks/clocks.c.obj
 .text.clocks_irq_handler
                0x0000000000000000       0x2c CMakeFiles/main.dir/home/iwo/pico/pico-sdk/src/rp2_common/hardware_clocks/clocks.c.obj
 .text.clock_set_reported_hz
                0x0000000000000000        0xc CMakeFiles/main.dir/home/iwo/pico/pico-sdk/src/rp2_common/hardware_clocks/clocks.c.obj
 .text.frequency_count_khz
                0x0000000000000000       0x40 CMakeFiles/main.dir/home/iwo/pico/pico-sdk/src/rp2_common/hardware_clocks/clocks.c.obj
 .text.clocks_enable_resus
                0x0000000000000000       0x34 CMakeFiles/main.dir/home/iwo/pico/pico-sdk/src/rp2_common/hardware_clocks/clocks.c.obj
 .text.clock_gpio_init
                0x0000000000000000       0x4c CMakeFiles/main.dir/home/iwo/pico/pico-sdk/src/rp2_common/hardware_clocks/clocks.c.obj
 .text.clock_configure_gpin
                0x0000000000000000       0x5c CMakeFiles/main.dir/home/iwo/pico/pico-sdk/src/rp2_common/hardware_clocks/clocks.c.obj
 .bss._resus_callback
                0x0000000000000000        0x4 CMakeFiles/main.dir/home/iwo/pico/pico-sdk/src/rp2_common/hardware_clocks/clocks.c.obj
 .rodata.__func__.4731
                0x0000000000000000       0x14 CMakeFiles/main.dir/home/iwo/pico/pico-sdk/src/rp2_common/hardware_clocks/clocks.c.obj
 .rodata.gpin0_src
                0x0000000000000000        0xa CMakeFiles/main.dir/home/iwo/pico/pico-sdk/src/rp2_common/hardware_clocks/clocks.c.obj
 .text          0x0000000000000000        0x0 CMakeFiles/main.dir/home/iwo/pico/pico-sdk/src/rp2_common/hardware_irq/irq.c.obj
 .data          0x0000000000000000        0x0 CMakeFiles/main.dir/home/iwo/pico/pico-sdk/src/rp2_common/hardware_irq/irq.c.obj
 .bss           0x0000000000000000        0x0 CMakeFiles/main.dir/home/iwo/pico/pico-sdk/src/rp2_common/hardware_irq/irq.c.obj
 .text.irq_get_exclusive_handler
                0x0000000000000000       0x4c CMakeFiles/main.dir/home/iwo/pico/pico-sdk/src/rp2_common/hardware_irq/irq.c.obj
 .text.irq_add_shared_handler
                0x0000000000000000      0x230 CMakeFiles/main.dir/home/iwo/pico/pico-sdk/src/rp2_common/hardware_irq/irq.c.obj
 .text.irq_set_priority
                0x0000000000000000       0x28 CMakeFiles/main.dir/home/iwo/pico/pico-sdk/src/rp2_common/hardware_irq/irq.c.obj
 .text.irq_get_priority
                0x0000000000000000       0x20 CMakeFiles/main.dir/home/iwo/pico/pico-sdk/src/rp2_common/hardware_irq/irq.c.obj
 .rodata.__func__.4776
                0x0000000000000000       0x17 CMakeFiles/main.dir/home/iwo/pico/pico-sdk/src/rp2_common/hardware_irq/irq.c.obj
 .text          0x0000000000000000        0x0 CMakeFiles/main.dir/home/iwo/pico/pico-sdk/src/rp2_common/hardware_irq/irq_handler_chain.S.obj
 .bss           0x0000000000000000        0x0 CMakeFiles/main.dir/home/iwo/pico/pico-sdk/src/rp2_common/hardware_irq/irq_handler_chain.S.obj
 .text          0x0000000000000000        0x0 CMakeFiles/main.dir/home/iwo/pico/pico-sdk/src/rp2_common/hardware_pll/pll.c.obj
 .data          0x0000000000000000        0x0 CMakeFiles/main.dir/home/iwo/pico/pico-sdk/src/rp2_common/hardware_pll/pll.c.obj
 .bss           0x0000000000000000        0x0 CMakeFiles/main.dir/home/iwo/pico/pico-sdk/src/rp2_common/hardware_pll/pll.c.obj
 .text.pll_deinit
                0x0000000000000000        0x6 CMakeFiles/main.dir/home/iwo/pico/pico-sdk/src/rp2_common/hardware_pll/pll.c.obj
 .text          0x0000000000000000        0x0 CMakeFiles/main.dir/home/iwo/pico/pico-sdk/src/rp2_common/hardware_vreg/vreg.c.obj
 .data          0x0000000000000000        0x0 CMakeFiles/main.dir/home/iwo/pico/pico-sdk/src/rp2_common/hardware_vreg/vreg.c.obj
 .bss           0x0000000000000000        0x0 CMakeFiles/main.dir/home/iwo/pico/pico-sdk/src/rp2_common/hardware_vreg/vreg.c.obj
 .text.vreg_set_voltage
                0x0000000000000000       0x1c CMakeFiles/main.dir/home/iwo/pico/pico-sdk/src/rp2_common/hardware_vreg/vreg.c.obj
 .debug_info    0x0000000000000000      0x238 CMakeFiles/main.dir/home/iwo/pico/pico-sdk/src/rp2_common/hardware_vreg/vreg.c.obj
 .debug_abbrev  0x0000000000000000      0x11d CMakeFiles/main.dir/home/iwo/pico/pico-sdk/src/rp2_common/hardware_vreg/vreg.c.obj
 .debug_loc     0x0000000000000000       0x9a CMakeFiles/main.dir/home/iwo/pico/pico-sdk/src/rp2_common/hardware_vreg/vreg.c.obj
 .debug_aranges
                0x0000000000000000       0x20 CMakeFiles/main.dir/home/iwo/pico/pico-sdk/src/rp2_common/hardware_vreg/vreg.c.obj
 .debug_ranges  0x0000000000000000       0x10 CMakeFiles/main.dir/home/iwo/pico/pico-sdk/src/rp2_common/hardware_vreg/vreg.c.obj
 .debug_line    0x0000000000000000      0x22a CMakeFiles/main.dir/home/iwo/pico/pico-sdk/src/rp2_common/hardware_vreg/vreg.c.obj
 .debug_str     0x0000000000000000      0x336 CMakeFiles/main.dir/home/iwo/pico/pico-sdk/src/rp2_common/hardware_vreg/vreg.c.obj
 .comment       0x0000000000000000       0x5a CMakeFiles/main.dir/home/iwo/pico/pico-sdk/src/rp2_common/hardware_vreg/vreg.c.obj
 .debug_frame   0x0000000000000000       0x20 CMakeFiles/main.dir/home/iwo/pico/pico-sdk/src/rp2_common/hardware_vreg/vreg.c.obj
 .ARM.attributes
                0x0000000000000000       0x2c CMakeFiles/main.dir/home/iwo/pico/pico-sdk/src/rp2_common/hardware_vreg/vreg.c.obj
 .text          0x0000000000000000        0x0 CMakeFiles/main.dir/home/iwo/pico/pico-sdk/src/rp2_common/hardware_watchdog/watchdog.c.obj
 .data          0x0000000000000000        0x0 CMakeFiles/main.dir/home/iwo/pico/pico-sdk/src/rp2_common/hardware_watchdog/watchdog.c.obj
 .bss           0x0000000000000000        0x0 CMakeFiles/main.dir/home/iwo/pico/pico-sdk/src/rp2_common/hardware_watchdog/watchdog.c.obj
 .text.watchdog_get_count
                0x0000000000000000       0x10 CMakeFiles/main.dir/home/iwo/pico/pico-sdk/src/rp2_common/hardware_watchdog/watchdog.c.obj
 .text.watchdog_enable
                0x0000000000000000       0x18 CMakeFiles/main.dir/home/iwo/pico/pico-sdk/src/rp2_common/hardware_watchdog/watchdog.c.obj
 .text.watchdog_caused_reboot
                0x0000000000000000       0x10 CMakeFiles/main.dir/home/iwo/pico/pico-sdk/src/rp2_common/hardware_watchdog/watchdog.c.obj
 .text.watchdog_enable_caused_reboot
                0x0000000000000000       0x28 CMakeFiles/main.dir/home/iwo/pico/pico-sdk/src/rp2_common/hardware_watchdog/watchdog.c.obj
 .text          0x0000000000000000        0x0 CMakeFiles/main.dir/home/iwo/pico/pico-sdk/src/rp2_common/hardware_xosc/xosc.c.obj
 .data          0x0000000000000000        0x0 CMakeFiles/main.dir/home/iwo/pico/pico-sdk/src/rp2_common/hardware_xosc/xosc.c.obj
 .bss           0x0000000000000000        0x0 CMakeFiles/main.dir/home/iwo/pico/pico-sdk/src/rp2_common/hardware_xosc/xosc.c.obj
 .text.xosc_disable
                0x0000000000000000       0x24 CMakeFiles/main.dir/home/iwo/pico/pico-sdk/src/rp2_common/hardware_xosc/xosc.c.obj
 .text.xosc_dormant
                0x0000000000000000       0x18 CMakeFiles/main.dir/home/iwo/pico/pico-sdk/src/rp2_common/hardware_xosc/xosc.c.obj
 .text          0x0000000000000000        0x0 CMakeFiles/main.dir/home/iwo/pico/pico-sdk/src/rp2_common/pico_printf/printf.c.obj
 .data          0x0000000000000000        0x0 CMakeFiles/main.dir/home/iwo/pico/pico-sdk/src/rp2_common/pico_printf/printf.c.obj
 .bss           0x0000000000000000        0x0 CMakeFiles/main.dir/home/iwo/pico/pico-sdk/src/rp2_common/pico_printf/printf.c.obj
 .text._out_buffer
                0x0000000000000000        0x8 CMakeFiles/main.dir/home/iwo/pico/pico-sdk/src/rp2_common/pico_printf/printf.c.obj
 .text.__wrap_sprintf
                0x0000000000000000       0x28 CMakeFiles/main.dir/home/iwo/pico/pico-sdk/src/rp2_common/pico_printf/printf.c.obj
 .text.__wrap_snprintf
                0x0000000000000000       0x28 CMakeFiles/main.dir/home/iwo/pico/pico-sdk/src/rp2_common/pico_printf/printf.c.obj
 .text.__wrap_vsnprintf
                0x0000000000000000       0x1c CMakeFiles/main.dir/home/iwo/pico/pico-sdk/src/rp2_common/pico_printf/printf.c.obj
 .data          0x0000000000000000        0x0 CMakeFiles/main.dir/home/iwo/pico/pico-sdk/src/rp2_common/pico_bit_ops/bit_ops_aeabi.S.obj
 .bss           0x0000000000000000        0x0 CMakeFiles/main.dir/home/iwo/pico/pico-sdk/src/rp2_common/pico_bit_ops/bit_ops_aeabi.S.obj
 .text.clzsi    0x0000000000000000        0xc CMakeFiles/main.dir/home/iwo/pico/pico-sdk/src/rp2_common/pico_bit_ops/bit_ops_aeabi.S.obj
 .text.ctzsi    0x0000000000000000        0xc CMakeFiles/main.dir/home/iwo/pico/pico-sdk/src/rp2_common/pico_bit_ops/bit_ops_aeabi.S.obj
 .text.popcountsi
                0x0000000000000000        0xc CMakeFiles/main.dir/home/iwo/pico/pico-sdk/src/rp2_common/pico_bit_ops/bit_ops_aeabi.S.obj
 .text.clzdi    0x0000000000000000       0x18 CMakeFiles/main.dir/home/iwo/pico/pico-sdk/src/rp2_common/pico_bit_ops/bit_ops_aeabi.S.obj
 .text.ctzdi    0x0000000000000000       0x18 CMakeFiles/main.dir/home/iwo/pico/pico-sdk/src/rp2_common/pico_bit_ops/bit_ops_aeabi.S.obj
 .text.popcountdi
                0x0000000000000000       0x18 CMakeFiles/main.dir/home/iwo/pico/pico-sdk/src/rp2_common/pico_bit_ops/bit_ops_aeabi.S.obj
 .text.reverse32
                0x0000000000000000        0xc CMakeFiles/main.dir/home/iwo/pico/pico-sdk/src/rp2_common/pico_bit_ops/bit_ops_aeabi.S.obj
 .text.__rev    0x0000000000000000        0xc CMakeFiles/main.dir/home/iwo/pico/pico-sdk/src/rp2_common/pico_bit_ops/bit_ops_aeabi.S.obj
 .text.__revll  0x0000000000000000       0x18 CMakeFiles/main.dir/home/iwo/pico/pico-sdk/src/rp2_common/pico_bit_ops/bit_ops_aeabi.S.obj
 .text          0x0000000000000000        0x0 CMakeFiles/main.dir/home/iwo/pico/pico-sdk/src/rp2_common/pico_bootrom/bootrom.c.obj
 .data          0x0000000000000000        0x0 CMakeFiles/main.dir/home/iwo/pico/pico-sdk/src/rp2_common/pico_bootrom/bootrom.c.obj
 .bss           0x0000000000000000        0x0 CMakeFiles/main.dir/home/iwo/pico/pico-sdk/src/rp2_common/pico_bootrom/bootrom.c.obj
 .text          0x0000000000000000        0x0 CMakeFiles/main.dir/home/iwo/pico/pico-sdk/src/rp2_common/pico_divider/divider.S.obj
 .data          0x0000000000000000        0x0 CMakeFiles/main.dir/home/iwo/pico/pico-sdk/src/rp2_common/pico_divider/divider.S.obj
 .bss           0x0000000000000000        0x0 CMakeFiles/main.dir/home/iwo/pico/pico-sdk/src/rp2_common/pico_divider/divider.S.obj
 .text.divmod_s64s64_rem
                0x0000000000000000        0xc CMakeFiles/main.dir/home/iwo/pico/pico-sdk/src/rp2_common/pico_divider/divider.S.obj
 .text.divmod_u64u64_rem
                0x0000000000000000        0xc CMakeFiles/main.dir/home/iwo/pico/pico-sdk/src/rp2_common/pico_divider/divider.S.obj
 .text          0x0000000000000000        0x0 CMakeFiles/main.dir/home/iwo/pico/pico-sdk/src/rp2_common/pico_double/double_aeabi.S.obj
 .data          0x0000000000000000        0x0 CMakeFiles/main.dir/home/iwo/pico/pico-sdk/src/rp2_common/pico_double/double_aeabi.S.obj
 .bss           0x0000000000000000        0x0 CMakeFiles/main.dir/home/iwo/pico/pico-sdk/src/rp2_common/pico_double/double_aeabi.S.obj
 .text.__wrap___aeabi_dcmpeq
                0x0000000000000000       0x10 CMakeFiles/main.dir/home/iwo/pico/pico-sdk/src/rp2_common/pico_double/double_aeabi.S.obj
 .text.__wrap___aeabi_ui2d
                0x0000000000000000       0x18 CMakeFiles/main.dir/home/iwo/pico/pico-sdk/src/rp2_common/pico_double/double_aeabi.S.obj
 .text.double2int
                0x0000000000000000       0x18 CMakeFiles/main.dir/home/iwo/pico/pico-sdk/src/rp2_common/pico_double/double_aeabi.S.obj
 .text.fix2double
                0x0000000000000000       0x18 CMakeFiles/main.dir/home/iwo/pico/pico-sdk/src/rp2_common/pico_double/double_aeabi.S.obj
 .text.ufix2double
                0x0000000000000000       0x28 CMakeFiles/main.dir/home/iwo/pico/pico-sdk/src/rp2_common/pico_double/double_aeabi.S.obj
 .text.__wrap___aeabi_l2d
                0x0000000000000000       0x18 CMakeFiles/main.dir/home/iwo/pico/pico-sdk/src/rp2_common/pico_double/double_aeabi.S.obj
 .text.__wrap___aeabi_ul2d
                0x0000000000000000       0x18 CMakeFiles/main.dir/home/iwo/pico/pico-sdk/src/rp2_common/pico_double/double_aeabi.S.obj
 .text.__wrap___aeabi_d2lz
                0x0000000000000000       0x26 CMakeFiles/main.dir/home/iwo/pico/pico-sdk/src/rp2_common/pico_double/double_aeabi.S.obj
 .text.double2int64
                0x0000000000000000       0x18 CMakeFiles/main.dir/home/iwo/pico/pico-sdk/src/rp2_common/pico_double/double_aeabi.S.obj
 .text.__wrap___aeabi_d2ulz
                0x0000000000000000       0x18 CMakeFiles/main.dir/home/iwo/pico/pico-sdk/src/rp2_common/pico_double/double_aeabi.S.obj
 .text.double2fix64
                0x0000000000000000       0x18 CMakeFiles/main.dir/home/iwo/pico/pico-sdk/src/rp2_common/pico_double/double_aeabi.S.obj
 .text.double2ufix64
                0x0000000000000000       0x18 CMakeFiles/main.dir/home/iwo/pico/pico-sdk/src/rp2_common/pico_double/double_aeabi.S.obj
 .text.double2fix
                0x0000000000000000       0x18 CMakeFiles/main.dir/home/iwo/pico/pico-sdk/src/rp2_common/pico_double/double_aeabi.S.obj
 .text.double2ufix
                0x0000000000000000       0x18 CMakeFiles/main.dir/home/iwo/pico/pico-sdk/src/rp2_common/pico_double/double_aeabi.S.obj
 .text.__wrap_srqt
                0x0000000000000000       0x18 CMakeFiles/main.dir/home/iwo/pico/pico-sdk/src/rp2_common/pico_double/double_aeabi.S.obj
 .text.__wrap_sincos
                0x0000000000000000       0xa0 CMakeFiles/main.dir/home/iwo/pico/pico-sdk/src/rp2_common/pico_double/double_aeabi.S.obj
 .text.__wrap_tan
                0x0000000000000000       0x5c CMakeFiles/main.dir/home/iwo/pico/pico-sdk/src/rp2_common/pico_double/double_aeabi.S.obj
 .text.__wrap_atan2
                0x0000000000000000       0x18 CMakeFiles/main.dir/home/iwo/pico/pico-sdk/src/rp2_common/pico_double/double_aeabi.S.obj
 .text.__wrap_exp
                0x0000000000000000       0x18 CMakeFiles/main.dir/home/iwo/pico/pico-sdk/src/rp2_common/pico_double/double_aeabi.S.obj
 .text.__wrap_log
                0x0000000000000000       0x18 CMakeFiles/main.dir/home/iwo/pico/pico-sdk/src/rp2_common/pico_double/double_aeabi.S.obj
 .text          0x0000000000000000        0x0 CMakeFiles/main.dir/home/iwo/pico/pico-sdk/src/rp2_common/pico_double/double_init_rom.c.obj
 .data          0x0000000000000000        0x0 CMakeFiles/main.dir/home/iwo/pico/pico-sdk/src/rp2_common/pico_double/double_init_rom.c.obj
 .bss           0x0000000000000000        0x0 CMakeFiles/main.dir/home/iwo/pico/pico-sdk/src/rp2_common/pico_double/double_init_rom.c.obj
 .text          0x0000000000000000        0x0 CMakeFiles/main.dir/home/iwo/pico/pico-sdk/src/rp2_common/pico_double/double_math.c.obj
 .data          0x0000000000000000        0x0 CMakeFiles/main.dir/home/iwo/pico/pico-sdk/src/rp2_common/pico_double/double_math.c.obj
 .bss           0x0000000000000000        0x0 CMakeFiles/main.dir/home/iwo/pico/pico-sdk/src/rp2_common/pico_double/double_math.c.obj
 .text.dpow_int2
                0x0000000000000000       0x2c CMakeFiles/main.dir/home/iwo/pico/pico-sdk/src/rp2_common/pico_double/double_math.c.obj
 .text.dpow_1   0x0000000000000000      0x27c CMakeFiles/main.dir/home/iwo/pico/pico-sdk/src/rp2_common/pico_double/double_math.c.obj
 .text.dpowint_0
                0x0000000000000000      0x16c CMakeFiles/main.dir/home/iwo/pico/pico-sdk/src/rp2_common/pico_double/double_math.c.obj
 .text.dpow_0   0x0000000000000000      0x170 CMakeFiles/main.dir/home/iwo/pico/pico-sdk/src/rp2_common/pico_double/double_math.c.obj
 .text.__wrap_ldexp
                0x0000000000000000       0x50 CMakeFiles/main.dir/home/iwo/pico/pico-sdk/src/rp2_common/pico_double/double_math.c.obj
 .text.__wrap_copysign
                0x0000000000000000        0xe CMakeFiles/main.dir/home/iwo/pico/pico-sdk/src/rp2_common/pico_double/double_math.c.obj
 .text.__wrap_trunc
                0x0000000000000000       0x60 CMakeFiles/main.dir/home/iwo/pico/pico-sdk/src/rp2_common/pico_double/double_math.c.obj
 .text.__wrap_round
                0x0000000000000000       0x9c CMakeFiles/main.dir/home/iwo/pico/pico-sdk/src/rp2_common/pico_double/double_math.c.obj
 .text.__wrap_floor
                0x0000000000000000       0x9c CMakeFiles/main.dir/home/iwo/pico/pico-sdk/src/rp2_common/pico_double/double_math.c.obj
 .text.__wrap_ceil
                0x0000000000000000       0x9c CMakeFiles/main.dir/home/iwo/pico/pico-sdk/src/rp2_common/pico_double/double_math.c.obj
 .text.__wrap_asin
                0x0000000000000000       0x60 CMakeFiles/main.dir/home/iwo/pico/pico-sdk/src/rp2_common/pico_double/double_math.c.obj
 .text.__wrap_acos
                0x0000000000000000       0x5c CMakeFiles/main.dir/home/iwo/pico/pico-sdk/src/rp2_common/pico_double/double_math.c.obj
 .text.__wrap_atan
                0x0000000000000000       0x40 CMakeFiles/main.dir/home/iwo/pico/pico-sdk/src/rp2_common/pico_double/double_math.c.obj
 .text.__wrap_sinh
                0x0000000000000000       0x7c CMakeFiles/main.dir/home/iwo/pico/pico-sdk/src/rp2_common/pico_double/double_math.c.obj
 .text.__wrap_cosh
                0x0000000000000000       0x7c CMakeFiles/main.dir/home/iwo/pico/pico-sdk/src/rp2_common/pico_double/double_math.c.obj
 .text.__wrap_tanh
                0x0000000000000000       0x90 CMakeFiles/main.dir/home/iwo/pico/pico-sdk/src/rp2_common/pico_double/double_math.c.obj
 .text.__wrap_asinh
                0x0000000000000000       0xb8 CMakeFiles/main.dir/home/iwo/pico/pico-sdk/src/rp2_common/pico_double/double_math.c.obj
 .text.__wrap_acosh
                0x0000000000000000       0x78 CMakeFiles/main.dir/home/iwo/pico/pico-sdk/src/rp2_common/pico_double/double_math.c.obj
 .text.__wrap_atanh
                0x0000000000000000       0x84 CMakeFiles/main.dir/home/iwo/pico/pico-sdk/src/rp2_common/pico_double/double_math.c.obj
 .text.__wrap_exp2
                0x0000000000000000       0xcc CMakeFiles/main.dir/home/iwo/pico/pico-sdk/src/rp2_common/pico_double/double_math.c.obj
 .text.__wrap_log2
                0x0000000000000000       0x18 CMakeFiles/main.dir/home/iwo/pico/pico-sdk/src/rp2_common/pico_double/double_math.c.obj
 .text.__wrap_exp10
                0x0000000000000000       0x14 CMakeFiles/main.dir/home/iwo/pico/pico-sdk/src/rp2_common/pico_double/double_math.c.obj
 .text.__wrap_log10
                0x0000000000000000       0x18 CMakeFiles/main.dir/home/iwo/pico/pico-sdk/src/rp2_common/pico_double/double_math.c.obj
 .text.__wrap_expm1
                0x0000000000000000       0x14 CMakeFiles/main.dir/home/iwo/pico/pico-sdk/src/rp2_common/pico_double/double_math.c.obj
 .text.__wrap_log1p
                0x0000000000000000       0x14 CMakeFiles/main.dir/home/iwo/pico/pico-sdk/src/rp2_common/pico_double/double_math.c.obj
 .text.__wrap_fma
                0x0000000000000000       0x10 CMakeFiles/main.dir/home/iwo/pico/pico-sdk/src/rp2_common/pico_double/double_math.c.obj
 .text.__wrap_powint
                0x0000000000000000       0xbc CMakeFiles/main.dir/home/iwo/pico/pico-sdk/src/rp2_common/pico_double/double_math.c.obj
 .text.__wrap_pow
                0x0000000000000000      0x394 CMakeFiles/main.dir/home/iwo/pico/pico-sdk/src/rp2_common/pico_double/double_math.c.obj
 .text.__wrap_hypot
                0x0000000000000000      0x24c CMakeFiles/main.dir/home/iwo/pico/pico-sdk/src/rp2_common/pico_double/double_math.c.obj
 .text.__wrap_cbrt
                0x0000000000000000       0xe8 CMakeFiles/main.dir/home/iwo/pico/pico-sdk/src/rp2_common/pico_double/double_math.c.obj
 .text.__wrap_fmod
                0x0000000000000000       0xa8 CMakeFiles/main.dir/home/iwo/pico/pico-sdk/src/rp2_common/pico_double/double_math.c.obj
 .text.__wrap_drem
                0x0000000000000000       0x10 CMakeFiles/main.dir/home/iwo/pico/pico-sdk/src/rp2_common/pico_double/double_math.c.obj
 .text          0x0000000000000000        0x0 CMakeFiles/main.dir/home/iwo/pico/pico-sdk/src/rp2_common/pico_double/double_v1_rom_shim.S.obj
 .data          0x0000000000000000        0x0 CMakeFiles/main.dir/home/iwo/pico/pico-sdk/src/rp2_common/pico_double/double_v1_rom_shim.S.obj
 .bss           0x0000000000000000        0x0 CMakeFiles/main.dir/home/iwo/pico/pico-sdk/src/rp2_common/pico_double/double_v1_rom_shim.S.obj
 .text.dsqrt_shim
                0x0000000000000000      0x1a8 CMakeFiles/main.dir/home/iwo/pico/pico-sdk/src/rp2_common/pico_double/double_v1_rom_shim.S.obj
 .text.double2int_shim
                0x0000000000000000        0xe CMakeFiles/main.dir/home/iwo/pico/pico-sdk/src/rp2_common/pico_double/double_v1_rom_shim.S.obj
 .text.dtan_shim
                0x0000000000000000       0x20 CMakeFiles/main.dir/home/iwo/pico/pico-sdk/src/rp2_common/pico_double/double_v1_rom_shim.S.obj
 .text.dsincos_shim
                0x0000000000000000       0x20 CMakeFiles/main.dir/home/iwo/pico/pico-sdk/src/rp2_common/pico_double/double_v1_rom_shim.S.obj
 .text.dexp_guts
                0x0000000000000000      0x268 CMakeFiles/main.dir/home/iwo/pico/pico-sdk/src/rp2_common/pico_double/double_v1_rom_shim.S.obj
 .text          0x0000000000000000        0x0 CMakeFiles/main.dir/home/iwo/pico/pico-sdk/src/rp2_common/pico_int64_ops/pico_int64_ops_aeabi.S.obj
 .data          0x0000000000000000        0x0 CMakeFiles/main.dir/home/iwo/pico/pico-sdk/src/rp2_common/pico_int64_ops/pico_int64_ops_aeabi.S.obj
 .bss           0x0000000000000000        0x0 CMakeFiles/main.dir/home/iwo/pico/pico-sdk/src/rp2_common/pico_int64_ops/pico_int64_ops_aeabi.S.obj
 .text          0x0000000000000000        0x0 CMakeFiles/main.dir/home/iwo/pico/pico-sdk/src/rp2_common/pico_float/float_aeabi.S.obj
 .data          0x0000000000000000        0x0 CMakeFiles/main.dir/home/iwo/pico/pico-sdk/src/rp2_common/pico_float/float_aeabi.S.obj
 .bss           0x0000000000000000        0x0 CMakeFiles/main.dir/home/iwo/pico/pico-sdk/src/rp2_common/pico_float/float_aeabi.S.obj
 .text.__wrap___aeabi_farithmetic
                0x0000000000000000       0x58 CMakeFiles/main.dir/home/iwo/pico/pico-sdk/src/rp2_common/pico_float/float_aeabi.S.obj
 .text.__wrap___aeabi_cfcmple
                0x0000000000000000       0x50 CMakeFiles/main.dir/home/iwo/pico/pico-sdk/src/rp2_common/pico_float/float_aeabi.S.obj
 .text.__wrap___aeabi_fcmpeq
                0x0000000000000000       0x10 CMakeFiles/main.dir/home/iwo/pico/pico-sdk/src/rp2_common/pico_float/float_aeabi.S.obj
 .text.__wrap___aeabi_fcmplt
                0x0000000000000000        0xc CMakeFiles/main.dir/home/iwo/pico/pico-sdk/src/rp2_common/pico_float/float_aeabi.S.obj
 .text.__wrap___aeabi_fcmple
                0x0000000000000000       0x10 CMakeFiles/main.dir/home/iwo/pico/pico-sdk/src/rp2_common/pico_float/float_aeabi.S.obj
 .text.__wrap___aeabi_fcmpge
                0x0000000000000000       0x10 CMakeFiles/main.dir/home/iwo/pico/pico-sdk/src/rp2_common/pico_float/float_aeabi.S.obj
 .text.__wrap___aeabi_fcmpgt
                0x0000000000000000        0xa CMakeFiles/main.dir/home/iwo/pico/pico-sdk/src/rp2_common/pico_float/float_aeabi.S.obj
 .text.__wrap___aeabi_fcmpun
                0x0000000000000000       0x18 CMakeFiles/main.dir/home/iwo/pico/pico-sdk/src/rp2_common/pico_float/float_aeabi.S.obj
 .text.__wrap___aeabi_ui2f
                0x0000000000000000        0xa CMakeFiles/main.dir/home/iwo/pico/pico-sdk/src/rp2_common/pico_float/float_aeabi.S.obj
 .text.float2fix
                0x0000000000000000       0x14 CMakeFiles/main.dir/home/iwo/pico/pico-sdk/src/rp2_common/pico_float/float_aeabi.S.obj
 .text.float2ufix
                0x0000000000000000       0x10 CMakeFiles/main.dir/home/iwo/pico/pico-sdk/src/rp2_common/pico_float/float_aeabi.S.obj
 .text.fix2float
                0x0000000000000000       0x10 CMakeFiles/main.dir/home/iwo/pico/pico-sdk/src/rp2_common/pico_float/float_aeabi.S.obj
 .text.ufix2float
                0x0000000000000000       0x10 CMakeFiles/main.dir/home/iwo/pico/pico-sdk/src/rp2_common/pico_float/float_aeabi.S.obj
 .text.fix642float
                0x0000000000000000       0x14 CMakeFiles/main.dir/home/iwo/pico/pico-sdk/src/rp2_common/pico_float/float_aeabi.S.obj
 .text.ufix642float
                0x0000000000000000       0x14 CMakeFiles/main.dir/home/iwo/pico/pico-sdk/src/rp2_common/pico_float/float_aeabi.S.obj
 .text.__wrap___aeabi_l2f
                0x0000000000000000       0x20 CMakeFiles/main.dir/home/iwo/pico/pico-sdk/src/rp2_common/pico_float/float_aeabi.S.obj
 .text.__wrap___aeabi_ul2f
                0x0000000000000000       0x20 CMakeFiles/main.dir/home/iwo/pico/pico-sdk/src/rp2_common/pico_float/float_aeabi.S.obj
 .text.__wrap___aeabi_f2lz
                0x0000000000000000       0x26 CMakeFiles/main.dir/home/iwo/pico/pico-sdk/src/rp2_common/pico_float/float_aeabi.S.obj
 .text.float2int64
                0x0000000000000000       0x14 CMakeFiles/main.dir/home/iwo/pico/pico-sdk/src/rp2_common/pico_float/float_aeabi.S.obj
 .text.float2fix64
                0x0000000000000000       0x14 CMakeFiles/main.dir/home/iwo/pico/pico-sdk/src/rp2_common/pico_float/float_aeabi.S.obj
 .text.__wrap___aeabi_f2ulz
                0x0000000000000000       0x14 CMakeFiles/main.dir/home/iwo/pico/pico-sdk/src/rp2_common/pico_float/float_aeabi.S.obj
 .text.float2ufix64
                0x0000000000000000       0x14 CMakeFiles/main.dir/home/iwo/pico/pico-sdk/src/rp2_common/pico_float/float_aeabi.S.obj
 .text.__wrap_srqtf
                0x0000000000000000       0x24 CMakeFiles/main.dir/home/iwo/pico/pico-sdk/src/rp2_common/pico_float/float_aeabi.S.obj
 .text.__wrap_cosf
                0x0000000000000000       0x28 CMakeFiles/main.dir/home/iwo/pico/pico-sdk/src/rp2_common/pico_float/float_aeabi.S.obj
 .text.__wrap_sinf
                0x0000000000000000       0x28 CMakeFiles/main.dir/home/iwo/pico/pico-sdk/src/rp2_common/pico_float/float_aeabi.S.obj
 .text.__wrap_sincosf
                0x0000000000000000       0x30 CMakeFiles/main.dir/home/iwo/pico/pico-sdk/src/rp2_common/pico_float/float_aeabi.S.obj
 .text.__wrap_tanf
                0x0000000000000000       0x50 CMakeFiles/main.dir/home/iwo/pico/pico-sdk/src/rp2_common/pico_float/float_aeabi.S.obj
 .text.__wrap_atan2f
                0x0000000000000000       0x14 CMakeFiles/main.dir/home/iwo/pico/pico-sdk/src/rp2_common/pico_float/float_aeabi.S.obj
 .text.__wrap_expf
                0x0000000000000000       0x10 CMakeFiles/main.dir/home/iwo/pico/pico-sdk/src/rp2_common/pico_float/float_aeabi.S.obj
 .text.__wrap_logf
                0x0000000000000000       0x10 CMakeFiles/main.dir/home/iwo/pico/pico-sdk/src/rp2_common/pico_float/float_aeabi.S.obj
 .text          0x0000000000000000        0x0 CMakeFiles/main.dir/home/iwo/pico/pico-sdk/src/rp2_common/pico_float/float_init_rom.c.obj
 .data          0x0000000000000000        0x0 CMakeFiles/main.dir/home/iwo/pico/pico-sdk/src/rp2_common/pico_float/float_init_rom.c.obj
 .bss           0x0000000000000000        0x0 CMakeFiles/main.dir/home/iwo/pico/pico-sdk/src/rp2_common/pico_float/float_init_rom.c.obj
 .bss.sf_clz_func
                0x0000000000000000        0x4 CMakeFiles/main.dir/home/iwo/pico/pico-sdk/src/rp2_common/pico_float/float_init_rom.c.obj
 .text          0x0000000000000000        0x0 CMakeFiles/main.dir/home/iwo/pico/pico-sdk/src/rp2_common/pico_float/float_math.c.obj
 .data          0x0000000000000000        0x0 CMakeFiles/main.dir/home/iwo/pico/pico-sdk/src/rp2_common/pico_float/float_math.c.obj
 .bss           0x0000000000000000        0x0 CMakeFiles/main.dir/home/iwo/pico/pico-sdk/src/rp2_common/pico_float/float_math.c.obj
 .text.fpow_int2
                0x0000000000000000       0x26 CMakeFiles/main.dir/home/iwo/pico/pico-sdk/src/rp2_common/pico_float/float_math.c.obj
 .text.frem_0   0x0000000000000000       0x80 CMakeFiles/main.dir/home/iwo/pico/pico-sdk/src/rp2_common/pico_float/float_math.c.obj
 .text.fpow_0   0x0000000000000000      0x11c CMakeFiles/main.dir/home/iwo/pico/pico-sdk/src/rp2_common/pico_float/float_math.c.obj
 .text.fpowint_0
                0x0000000000000000      0x108 CMakeFiles/main.dir/home/iwo/pico/pico-sdk/src/rp2_common/pico_float/float_math.c.obj
 .text.__wrap_ldexpf
                0x0000000000000000       0x34 CMakeFiles/main.dir/home/iwo/pico/pico-sdk/src/rp2_common/pico_float/float_math.c.obj
 .text.__wrap_copysignf
                0x0000000000000000        0xc CMakeFiles/main.dir/home/iwo/pico/pico-sdk/src/rp2_common/pico_float/float_math.c.obj
 .text.__wrap_truncf
                0x0000000000000000       0x22 CMakeFiles/main.dir/home/iwo/pico/pico-sdk/src/rp2_common/pico_float/float_math.c.obj
 .text.__wrap_roundf
                0x0000000000000000       0x3e CMakeFiles/main.dir/home/iwo/pico/pico-sdk/src/rp2_common/pico_float/float_math.c.obj
 .text.__wrap_floorf
                0x0000000000000000       0x48 CMakeFiles/main.dir/home/iwo/pico/pico-sdk/src/rp2_common/pico_float/float_math.c.obj
 .text.__wrap_ceilf
                0x0000000000000000       0x46 CMakeFiles/main.dir/home/iwo/pico/pico-sdk/src/rp2_common/pico_float/float_math.c.obj
 .text.__wrap_asinf
                0x0000000000000000       0x42 CMakeFiles/main.dir/home/iwo/pico/pico-sdk/src/rp2_common/pico_float/float_math.c.obj
 .text.__wrap_acosf
                0x0000000000000000       0x40 CMakeFiles/main.dir/home/iwo/pico/pico-sdk/src/rp2_common/pico_float/float_math.c.obj
 .text.__wrap_atanf
                0x0000000000000000       0x2c CMakeFiles/main.dir/home/iwo/pico/pico-sdk/src/rp2_common/pico_float/float_math.c.obj
 .text.__wrap_sinhf
                0x0000000000000000       0x54 CMakeFiles/main.dir/home/iwo/pico/pico-sdk/src/rp2_common/pico_float/float_math.c.obj
 .text.__wrap_coshf
                0x0000000000000000       0x54 CMakeFiles/main.dir/home/iwo/pico/pico-sdk/src/rp2_common/pico_float/float_math.c.obj
 .text.__wrap_tanhf
                0x0000000000000000       0x60 CMakeFiles/main.dir/home/iwo/pico/pico-sdk/src/rp2_common/pico_float/float_math.c.obj
 .text.__wrap_asinhf
                0x0000000000000000       0xb8 CMakeFiles/main.dir/home/iwo/pico/pico-sdk/src/rp2_common/pico_float/float_math.c.obj
 .text.__wrap_acoshf
                0x0000000000000000       0x74 CMakeFiles/main.dir/home/iwo/pico/pico-sdk/src/rp2_common/pico_float/float_math.c.obj
 .text.__wrap_atanhf
                0x0000000000000000       0x5c CMakeFiles/main.dir/home/iwo/pico/pico-sdk/src/rp2_common/pico_float/float_math.c.obj
 .text.__wrap_exp2f
                0x0000000000000000       0x20 CMakeFiles/main.dir/home/iwo/pico/pico-sdk/src/rp2_common/pico_float/float_math.c.obj
 .text.__wrap_log2f
                0x0000000000000000       0x14 CMakeFiles/main.dir/home/iwo/pico/pico-sdk/src/rp2_common/pico_float/float_math.c.obj
 .text.__wrap_exp10f
                0x0000000000000000       0x20 CMakeFiles/main.dir/home/iwo/pico/pico-sdk/src/rp2_common/pico_float/float_math.c.obj
 .text.__wrap_log10f
                0x0000000000000000       0x14 CMakeFiles/main.dir/home/iwo/pico/pico-sdk/src/rp2_common/pico_float/float_math.c.obj
 .text.__wrap_expm1f
                0x0000000000000000       0x1c CMakeFiles/main.dir/home/iwo/pico/pico-sdk/src/rp2_common/pico_float/float_math.c.obj
 .text.__wrap_log1pf
                0x0000000000000000       0x1c CMakeFiles/main.dir/home/iwo/pico/pico-sdk/src/rp2_common/pico_float/float_math.c.obj
 .text.__wrap_fmaf
                0x0000000000000000       0x3c CMakeFiles/main.dir/home/iwo/pico/pico-sdk/src/rp2_common/pico_float/float_math.c.obj
 .text.__wrap_powintf
                0x0000000000000000       0xa0 CMakeFiles/main.dir/home/iwo/pico/pico-sdk/src/rp2_common/pico_float/float_math.c.obj
 .text.__wrap_powf
                0x0000000000000000      0x1fc CMakeFiles/main.dir/home/iwo/pico/pico-sdk/src/rp2_common/pico_float/float_math.c.obj
 .text.__wrap_hypotf
                0x0000000000000000      0x16c CMakeFiles/main.dir/home/iwo/pico/pico-sdk/src/rp2_common/pico_float/float_math.c.obj
 .text.__wrap_cbrtf
                0x0000000000000000       0xbc CMakeFiles/main.dir/home/iwo/pico/pico-sdk/src/rp2_common/pico_float/float_math.c.obj
 .text.__wrap_fmodf
                0x0000000000000000       0x62 CMakeFiles/main.dir/home/iwo/pico/pico-sdk/src/rp2_common/pico_float/float_math.c.obj
 .text.__wrap_remquof
                0x0000000000000000       0xda CMakeFiles/main.dir/home/iwo/pico/pico-sdk/src/rp2_common/pico_float/float_math.c.obj
 .text.__wrap_dremf
                0x0000000000000000        0xa CMakeFiles/main.dir/home/iwo/pico/pico-sdk/src/rp2_common/pico_float/float_math.c.obj
 .text.__wrap_remainderf
                0x0000000000000000        0xa CMakeFiles/main.dir/home/iwo/pico/pico-sdk/src/rp2_common/pico_float/float_math.c.obj
 .debug_info    0x0000000000000000     0x3f60 CMakeFiles/main.dir/home/iwo/pico/pico-sdk/src/rp2_common/pico_float/float_math.c.obj
 .debug_abbrev  0x0000000000000000      0x444 CMakeFiles/main.dir/home/iwo/pico/pico-sdk/src/rp2_common/pico_float/float_math.c.obj
 .debug_loc     0x0000000000000000     0x4f12 CMakeFiles/main.dir/home/iwo/pico/pico-sdk/src/rp2_common/pico_float/float_math.c.obj
 .debug_aranges
                0x0000000000000000      0x128 CMakeFiles/main.dir/home/iwo/pico/pico-sdk/src/rp2_common/pico_float/float_math.c.obj
 .debug_ranges  0x0000000000000000      0xb58 CMakeFiles/main.dir/home/iwo/pico/pico-sdk/src/rp2_common/pico_float/float_math.c.obj
 .debug_line    0x0000000000000000     0x232b CMakeFiles/main.dir/home/iwo/pico/pico-sdk/src/rp2_common/pico_float/float_math.c.obj
 .debug_str     0x0000000000000000      0x892 CMakeFiles/main.dir/home/iwo/pico/pico-sdk/src/rp2_common/pico_float/float_math.c.obj
 .comment       0x0000000000000000       0x5a CMakeFiles/main.dir/home/iwo/pico/pico-sdk/src/rp2_common/pico_float/float_math.c.obj
 .debug_frame   0x0000000000000000      0x3a0 CMakeFiles/main.dir/home/iwo/pico/pico-sdk/src/rp2_common/pico_float/float_math.c.obj
 .ARM.attributes
                0x0000000000000000       0x2c CMakeFiles/main.dir/home/iwo/pico/pico-sdk/src/rp2_common/pico_float/float_math.c.obj
 .text          0x0000000000000000        0x0 CMakeFiles/main.dir/home/iwo/pico/pico-sdk/src/rp2_common/pico_float/float_v1_rom_shim.S.obj
 .data          0x0000000000000000        0x0 CMakeFiles/main.dir/home/iwo/pico/pico-sdk/src/rp2_common/pico_float/float_v1_rom_shim.S.obj
 .bss           0x0000000000000000        0x0 CMakeFiles/main.dir/home/iwo/pico/pico-sdk/src/rp2_common/pico_float/float_v1_rom_shim.S.obj
 .text.642float_shims
                0x0000000000000000       0x44 CMakeFiles/main.dir/home/iwo/pico/pico-sdk/src/rp2_common/pico_float/float_v1_rom_shim.S.obj
 .text.fatan2_shim
                0x0000000000000000       0x88 CMakeFiles/main.dir/home/iwo/pico/pico-sdk/src/rp2_common/pico_float/float_v1_rom_shim.S.obj
 .text.float264_shims
                0x0000000000000000       0x4c CMakeFiles/main.dir/home/iwo/pico/pico-sdk/src/rp2_common/pico_float/float_v1_rom_shim.S.obj
 .text.d2fix_a_float
                0x0000000000000000       0x5c CMakeFiles/main.dir/home/iwo/pico/pico-sdk/src/rp2_common/pico_float/float_v1_rom_shim.S.obj
 .text          0x0000000000000000        0x0 CMakeFiles/main.dir/home/iwo/pico/pico-sdk/src/rp2_common/pico_malloc/pico_malloc.c.obj
 .data          0x0000000000000000        0x0 CMakeFiles/main.dir/home/iwo/pico/pico-sdk/src/rp2_common/pico_malloc/pico_malloc.c.obj
 .bss           0x0000000000000000        0x0 CMakeFiles/main.dir/home/iwo/pico/pico-sdk/src/rp2_common/pico_malloc/pico_malloc.c.obj
 .text.__wrap_calloc
                0x0000000000000000       0x24 CMakeFiles/main.dir/home/iwo/pico/pico-sdk/src/rp2_common/pico_malloc/pico_malloc.c.obj
 .text.__wrap_free
                0x0000000000000000        0x8 CMakeFiles/main.dir/home/iwo/pico/pico-sdk/src/rp2_common/pico_malloc/pico_malloc.c.obj
 .data          0x0000000000000000        0x0 CMakeFiles/main.dir/home/iwo/pico/pico-sdk/src/rp2_common/pico_mem_ops/mem_ops_aeabi.S.obj
 .bss           0x0000000000000000        0x0 CMakeFiles/main.dir/home/iwo/pico/pico-sdk/src/rp2_common/pico_mem_ops/mem_ops_aeabi.S.obj
 .text.aeabi_memset_memcpy
                0x0000000000000000       0x24 CMakeFiles/main.dir/home/iwo/pico/pico-sdk/src/rp2_common/pico_mem_ops/mem_ops_aeabi.S.obj
 .text          0x0000000000000000        0x0 CMakeFiles/main.dir/home/iwo/pico/pico-sdk/src/rp2_common/pico_standard_link/crt0.S.obj
 .data          0x0000000000000000        0x0 CMakeFiles/main.dir/home/iwo/pico/pico-sdk/src/rp2_common/pico_standard_link/crt0.S.obj
 .bss           0x0000000000000000        0x0 CMakeFiles/main.dir/home/iwo/pico/pico-sdk/src/rp2_common/pico_standard_link/crt0.S.obj
 .text          0x0000000000000000        0x0 CMakeFiles/main.dir/home/iwo/pico/pico-sdk/src/rp2_common/pico_standard_link/new_delete.cpp.obj
 .data          0x0000000000000000        0x0 CMakeFiles/main.dir/home/iwo/pico/pico-sdk/src/rp2_common/pico_standard_link/new_delete.cpp.obj
 .bss           0x0000000000000000        0x0 CMakeFiles/main.dir/home/iwo/pico/pico-sdk/src/rp2_common/pico_standard_link/new_delete.cpp.obj
 .text._Znwj    0x0000000000000000        0x8 CMakeFiles/main.dir/home/iwo/pico/pico-sdk/src/rp2_common/pico_standard_link/new_delete.cpp.obj
 .text._Znaj    0x0000000000000000        0x8 CMakeFiles/main.dir/home/iwo/pico/pico-sdk/src/rp2_common/pico_standard_link/new_delete.cpp.obj
 .text._ZdlPv   0x0000000000000000        0x8 CMakeFiles/main.dir/home/iwo/pico/pico-sdk/src/rp2_common/pico_standard_link/new_delete.cpp.obj
 .text._ZdaPv   0x0000000000000000        0x8 CMakeFiles/main.dir/home/iwo/pico/pico-sdk/src/rp2_common/pico_standard_link/new_delete.cpp.obj
 .text._ZdlPvj  0x0000000000000000        0x8 CMakeFiles/main.dir/home/iwo/pico/pico-sdk/src/rp2_common/pico_standard_link/new_delete.cpp.obj
 .text._ZdaPvj  0x0000000000000000        0x8 CMakeFiles/main.dir/home/iwo/pico/pico-sdk/src/rp2_common/pico_standard_link/new_delete.cpp.obj
 .debug_info    0x0000000000000000     0x1025 CMakeFiles/main.dir/home/iwo/pico/pico-sdk/src/rp2_common/pico_standard_link/new_delete.cpp.obj
 .debug_abbrev  0x0000000000000000      0x2f5 CMakeFiles/main.dir/home/iwo/pico/pico-sdk/src/rp2_common/pico_standard_link/new_delete.cpp.obj
 .debug_loc     0x0000000000000000      0x128 CMakeFiles/main.dir/home/iwo/pico/pico-sdk/src/rp2_common/pico_standard_link/new_delete.cpp.obj
 .debug_aranges
                0x0000000000000000       0x48 CMakeFiles/main.dir/home/iwo/pico/pico-sdk/src/rp2_common/pico_standard_link/new_delete.cpp.obj
 .debug_ranges  0x0000000000000000       0x38 CMakeFiles/main.dir/home/iwo/pico/pico-sdk/src/rp2_common/pico_standard_link/new_delete.cpp.obj
 .debug_line    0x0000000000000000      0x232 CMakeFiles/main.dir/home/iwo/pico/pico-sdk/src/rp2_common/pico_standard_link/new_delete.cpp.obj
 .debug_str     0x0000000000000000      0x7a3 CMakeFiles/main.dir/home/iwo/pico/pico-sdk/src/rp2_common/pico_standard_link/new_delete.cpp.obj
 .comment       0x0000000000000000       0x5a CMakeFiles/main.dir/home/iwo/pico/pico-sdk/src/rp2_common/pico_standard_link/new_delete.cpp.obj
 .debug_frame   0x0000000000000000       0xa0 CMakeFiles/main.dir/home/iwo/pico/pico-sdk/src/rp2_common/pico_standard_link/new_delete.cpp.obj
 .ARM.attributes
                0x0000000000000000       0x2c CMakeFiles/main.dir/home/iwo/pico/pico-sdk/src/rp2_common/pico_standard_link/new_delete.cpp.obj
 .text          0x0000000000000000        0x0 CMakeFiles/main.dir/home/iwo/pico/pico-sdk/src/rp2_common/pico_standard_link/binary_info.c.obj
 .data          0x0000000000000000        0x0 CMakeFiles/main.dir/home/iwo/pico/pico-sdk/src/rp2_common/pico_standard_link/binary_info.c.obj
 .bss           0x0000000000000000        0x0 CMakeFiles/main.dir/home/iwo/pico/pico-sdk/src/rp2_common/pico_standard_link/binary_info.c.obj
 .text          0x0000000000000000        0x0 CMakeFiles/main.dir/home/iwo/pico/pico-sdk/src/rp2_common/pico_stdio/stdio.c.obj
 .data          0x0000000000000000        0x0 CMakeFiles/main.dir/home/iwo/pico/pico-sdk/src/rp2_common/pico_stdio/stdio.c.obj
 .bss           0x0000000000000000        0x0 CMakeFiles/main.dir/home/iwo/pico/pico-sdk/src/rp2_common/pico_stdio/stdio.c.obj
 .text.stdio_get_until
                0x0000000000000000       0x80 CMakeFiles/main.dir/home/iwo/pico/pico-sdk/src/rp2_common/pico_stdio/stdio.c.obj
 .text.__wrap_putchar
                0x0000000000000000       0x1c CMakeFiles/main.dir/home/iwo/pico/pico-sdk/src/rp2_common/pico_stdio/stdio.c.obj
 .text.putchar_raw
                0x0000000000000000       0x1c CMakeFiles/main.dir/home/iwo/pico/pico-sdk/src/rp2_common/pico_stdio/stdio.c.obj
 .text._read    0x0000000000000000       0x24 CMakeFiles/main.dir/home/iwo/pico/pico-sdk/src/rp2_common/pico_stdio/stdio.c.obj
 .text._write   0x0000000000000000       0x20 CMakeFiles/main.dir/home/iwo/pico/pico-sdk/src/rp2_common/pico_stdio/stdio.c.obj
 .text.puts_raw
                0x0000000000000000       0x1e CMakeFiles/main.dir/home/iwo/pico/pico-sdk/src/rp2_common/pico_stdio/stdio.c.obj
 .rodata.__wrap_getchar.str1.4
                0x0000000000000000       0x46 CMakeFiles/main.dir/home/iwo/pico/pico-sdk/src/rp2_common/pico_stdio/stdio.c.obj
 .text.__wrap_getchar
                0x0000000000000000       0x40 CMakeFiles/main.dir/home/iwo/pico/pico-sdk/src/rp2_common/pico_stdio/stdio.c.obj
 .rodata.getchar_timeout_us.str1.4
                0x0000000000000000       0x63 CMakeFiles/main.dir/home/iwo/pico/pico-sdk/src/rp2_common/pico_stdio/stdio.c.obj
 .text.getchar_timeout_us
                0x0000000000000000       0x80 CMakeFiles/main.dir/home/iwo/pico/pico-sdk/src/rp2_common/pico_stdio/stdio.c.obj
 .text.stdio_filter_driver
                0x0000000000000000        0xc CMakeFiles/main.dir/home/iwo/pico/pico-sdk/src/rp2_common/pico_stdio/stdio.c.obj
 .text.stdio_set_translate_crlf
                0x0000000000000000       0x10 CMakeFiles/main.dir/home/iwo/pico/pico-sdk/src/rp2_common/pico_stdio/stdio.c.obj
 .rodata.__func__.5424
                0x0000000000000000       0x15 CMakeFiles/main.dir/home/iwo/pico/pico-sdk/src/rp2_common/pico_stdio/stdio.c.obj
 .rodata.__func__.6015
                0x0000000000000000        0xf CMakeFiles/main.dir/home/iwo/pico/pico-sdk/src/rp2_common/pico_stdio/stdio.c.obj
 .rodata.__func__.6021
                0x0000000000000000       0x13 CMakeFiles/main.dir/home/iwo/pico/pico-sdk/src/rp2_common/pico_stdio/stdio.c.obj
 .text          0x0000000000000000        0x0 CMakeFiles/main.dir/home/iwo/pico/pico-sdk/src/rp2_common/pico_stdio_usb/reset_interface.c.obj
 .data          0x0000000000000000        0x0 CMakeFiles/main.dir/home/iwo/pico/pico-sdk/src/rp2_common/pico_stdio_usb/reset_interface.c.obj
 .bss           0x0000000000000000        0x0 CMakeFiles/main.dir/home/iwo/pico/pico-sdk/src/rp2_common/pico_stdio_usb/reset_interface.c.obj
 .text          0x0000000000000000        0x0 CMakeFiles/main.dir/home/iwo/pico/pico-sdk/src/rp2_common/pico_stdio_usb/stdio_usb.c.obj
 .data          0x0000000000000000        0x0 CMakeFiles/main.dir/home/iwo/pico/pico-sdk/src/rp2_common/pico_stdio_usb/stdio_usb.c.obj
 .bss           0x0000000000000000        0x0 CMakeFiles/main.dir/home/iwo/pico/pico-sdk/src/rp2_common/pico_stdio_usb/stdio_usb.c.obj
 .text.stdio_usb_connected
                0x0000000000000000        0xa CMakeFiles/main.dir/home/iwo/pico/pico-sdk/src/rp2_common/pico_stdio_usb/stdio_usb.c.obj
 .text          0x0000000000000000        0x0 CMakeFiles/main.dir/home/iwo/pico/pico-sdk/src/rp2_common/pico_stdio_usb/stdio_usb_descriptors.c.obj
 .data          0x0000000000000000        0x0 CMakeFiles/main.dir/home/iwo/pico/pico-sdk/src/rp2_common/pico_stdio_usb/stdio_usb_descriptors.c.obj
 .bss           0x0000000000000000        0x0 CMakeFiles/main.dir/home/iwo/pico/pico-sdk/src/rp2_common/pico_stdio_usb/stdio_usb_descriptors.c.obj
 .text          0x0000000000000000        0x0 CMakeFiles/main.dir/home/iwo/pico/pico-sdk/lib/tinyusb/src/portable/raspberrypi/rp2040/dcd_rp2040.c.obj
 .data          0x0000000000000000        0x0 CMakeFiles/main.dir/home/iwo/pico/pico-sdk/lib/tinyusb/src/portable/raspberrypi/rp2040/dcd_rp2040.c.obj
 .bss           0x0000000000000000        0x0 CMakeFiles/main.dir/home/iwo/pico/pico-sdk/lib/tinyusb/src/portable/raspberrypi/rp2040/dcd_rp2040.c.obj
 .text.dcd_int_disable
                0x0000000000000000       0x2c CMakeFiles/main.dir/home/iwo/pico/pico-sdk/lib/tinyusb/src/portable/raspberrypi/rp2040/dcd_rp2040.c.obj
 .text.dcd_remote_wakeup
                0x0000000000000000       0x30 CMakeFiles/main.dir/home/iwo/pico/pico-sdk/lib/tinyusb/src/portable/raspberrypi/rp2040/dcd_rp2040.c.obj
 .text.dcd_disconnect
                0x0000000000000000       0x10 CMakeFiles/main.dir/home/iwo/pico/pico-sdk/lib/tinyusb/src/portable/raspberrypi/rp2040/dcd_rp2040.c.obj
 .text.dcd_edpt_close
                0x0000000000000000        0x2 CMakeFiles/main.dir/home/iwo/pico/pico-sdk/lib/tinyusb/src/portable/raspberrypi/rp2040/dcd_rp2040.c.obj
 .text.dcd_int_handler
                0x0000000000000000        0x8 CMakeFiles/main.dir/home/iwo/pico/pico-sdk/lib/tinyusb/src/portable/raspberrypi/rp2040/dcd_rp2040.c.obj
 .rodata.__func__.6949
                0x0000000000000000       0x10 CMakeFiles/main.dir/home/iwo/pico/pico-sdk/lib/tinyusb/src/portable/raspberrypi/rp2040/dcd_rp2040.c.obj
 .rodata.__func__.6958
                0x0000000000000000       0x12 CMakeFiles/main.dir/home/iwo/pico/pico-sdk/lib/tinyusb/src/portable/raspberrypi/rp2040/dcd_rp2040.c.obj
 .text          0x0000000000000000        0x0 CMakeFiles/main.dir/home/iwo/pico/pico-sdk/lib/tinyusb/src/portable/raspberrypi/rp2040/rp2040_usb.c.obj
 .data          0x0000000000000000        0x0 CMakeFiles/main.dir/home/iwo/pico/pico-sdk/lib/tinyusb/src/portable/raspberrypi/rp2040/rp2040_usb.c.obj
 .bss           0x0000000000000000        0x0 CMakeFiles/main.dir/home/iwo/pico/pico-sdk/lib/tinyusb/src/portable/raspberrypi/rp2040/rp2040_usb.c.obj
 .text          0x0000000000000000        0x0 CMakeFiles/main.dir/home/iwo/pico/pico-sdk/lib/tinyusb/src/device/usbd.c.obj
 .data          0x0000000000000000        0x0 CMakeFiles/main.dir/home/iwo/pico/pico-sdk/lib/tinyusb/src/device/usbd.c.obj
 .bss           0x0000000000000000        0x0 CMakeFiles/main.dir/home/iwo/pico/pico-sdk/lib/tinyusb/src/device/usbd.c.obj
 .text.tud_speed_get
                0x0000000000000000        0xc CMakeFiles/main.dir/home/iwo/pico/pico-sdk/lib/tinyusb/src/device/usbd.c.obj
 .text.tud_connected
                0x0000000000000000       0x10 CMakeFiles/main.dir/home/iwo/pico/pico-sdk/lib/tinyusb/src/device/usbd.c.obj
 .text.tud_remote_wakeup
                0x0000000000000000       0x2c CMakeFiles/main.dir/home/iwo/pico/pico-sdk/lib/tinyusb/src/device/usbd.c.obj
 .text.tud_disconnect
                0x0000000000000000       0x1c CMakeFiles/main.dir/home/iwo/pico/pico-sdk/lib/tinyusb/src/device/usbd.c.obj
 .text.tud_connect
                0x0000000000000000       0x1c CMakeFiles/main.dir/home/iwo/pico/pico-sdk/lib/tinyusb/src/device/usbd.c.obj
 .text.tud_task_event_ready
                0x0000000000000000       0x20 CMakeFiles/main.dir/home/iwo/pico/pico-sdk/lib/tinyusb/src/device/usbd.c.obj
 .text.usbd_defer_func
                0x0000000000000000       0x1e CMakeFiles/main.dir/home/iwo/pico/pico-sdk/lib/tinyusb/src/device/usbd.c.obj
 .text.usbd_edpt_xfer_fifo
                0x0000000000000000       0x80 CMakeFiles/main.dir/home/iwo/pico/pico-sdk/lib/tinyusb/src/device/usbd.c.obj
 .text.usbd_edpt_busy
                0x0000000000000000       0x1c CMakeFiles/main.dir/home/iwo/pico/pico-sdk/lib/tinyusb/src/device/usbd.c.obj
 .text.usbd_edpt_close
                0x0000000000000000       0x58 CMakeFiles/main.dir/home/iwo/pico/pico-sdk/lib/tinyusb/src/device/usbd.c.obj
 .rodata.__func__.7561
                0x0000000000000000       0x14 CMakeFiles/main.dir/home/iwo/pico/pico-sdk/lib/tinyusb/src/device/usbd.c.obj
 .rodata.__func__.7590
                0x0000000000000000       0x10 CMakeFiles/main.dir/home/iwo/pico/pico-sdk/lib/tinyusb/src/device/usbd.c.obj
 .text          0x0000000000000000        0x0 CMakeFiles/main.dir/home/iwo/pico/pico-sdk/lib/tinyusb/src/device/usbd_control.c.obj
 .data          0x0000000000000000        0x0 CMakeFiles/main.dir/home/iwo/pico/pico-sdk/lib/tinyusb/src/device/usbd_control.c.obj
 .bss           0x0000000000000000        0x0 CMakeFiles/main.dir/home/iwo/pico/pico-sdk/lib/tinyusb/src/device/usbd_control.c.obj
 .text          0x0000000000000000        0x0 CMakeFiles/main.dir/home/iwo/pico/pico-sdk/lib/tinyusb/src/class/audio/audio_device.c.obj
 .data          0x0000000000000000        0x0 CMakeFiles/main.dir/home/iwo/pico/pico-sdk/lib/tinyusb/src/class/audio/audio_device.c.obj
 .bss           0x0000000000000000        0x0 CMakeFiles/main.dir/home/iwo/pico/pico-sdk/lib/tinyusb/src/class/audio/audio_device.c.obj
 .debug_info    0x0000000000000000       0x88 CMakeFiles/main.dir/home/iwo/pico/pico-sdk/lib/tinyusb/src/class/audio/audio_device.c.obj
 .debug_abbrev  0x0000000000000000       0x51 CMakeFiles/main.dir/home/iwo/pico/pico-sdk/lib/tinyusb/src/class/audio/audio_device.c.obj
 .debug_aranges
                0x0000000000000000       0x18 CMakeFiles/main.dir/home/iwo/pico/pico-sdk/lib/tinyusb/src/class/audio/audio_device.c.obj
 .debug_line    0x0000000000000000       0xb9 CMakeFiles/main.dir/home/iwo/pico/pico-sdk/lib/tinyusb/src/class/audio/audio_device.c.obj
 .debug_str     0x0000000000000000      0x1d0 CMakeFiles/main.dir/home/iwo/pico/pico-sdk/lib/tinyusb/src/class/audio/audio_device.c.obj
 .comment       0x0000000000000000       0x5a CMakeFiles/main.dir/home/iwo/pico/pico-sdk/lib/tinyusb/src/class/audio/audio_device.c.obj
 .ARM.attributes
                0x0000000000000000       0x32 CMakeFiles/main.dir/home/iwo/pico/pico-sdk/lib/tinyusb/src/class/audio/audio_device.c.obj
 .text          0x0000000000000000        0x0 CMakeFiles/main.dir/home/iwo/pico/pico-sdk/lib/tinyusb/src/class/cdc/cdc_device.c.obj
 .data          0x0000000000000000        0x0 CMakeFiles/main.dir/home/iwo/pico/pico-sdk/lib/tinyusb/src/class/cdc/cdc_device.c.obj
 .bss           0x0000000000000000        0x0 CMakeFiles/main.dir/home/iwo/pico/pico-sdk/lib/tinyusb/src/class/cdc/cdc_device.c.obj
 .text.tud_cdc_n_get_line_state
                0x0000000000000000       0x14 CMakeFiles/main.dir/home/iwo/pico/pico-sdk/lib/tinyusb/src/class/cdc/cdc_device.c.obj
 .text.tud_cdc_n_get_line_coding
                0x0000000000000000       0x20 CMakeFiles/main.dir/home/iwo/pico/pico-sdk/lib/tinyusb/src/class/cdc/cdc_device.c.obj
 .text.tud_cdc_n_set_wanted_char
                0x0000000000000000       0x14 CMakeFiles/main.dir/home/iwo/pico/pico-sdk/lib/tinyusb/src/class/cdc/cdc_device.c.obj
 .text.tud_cdc_n_peek
                0x0000000000000000       0x18 CMakeFiles/main.dir/home/iwo/pico/pico-sdk/lib/tinyusb/src/class/cdc/cdc_device.c.obj
 .text.tud_cdc_n_read_flush
                0x0000000000000000       0x20 CMakeFiles/main.dir/home/iwo/pico/pico-sdk/lib/tinyusb/src/class/cdc/cdc_device.c.obj
 .text.tud_cdc_n_write_clear
                0x0000000000000000       0x1c CMakeFiles/main.dir/home/iwo/pico/pico-sdk/lib/tinyusb/src/class/cdc/cdc_device.c.obj
 .text          0x0000000000000000        0x0 CMakeFiles/main.dir/home/iwo/pico/pico-sdk/lib/tinyusb/src/class/dfu/dfu_device.c.obj
 .data          0x0000000000000000        0x0 CMakeFiles/main.dir/home/iwo/pico/pico-sdk/lib/tinyusb/src/class/dfu/dfu_device.c.obj
 .bss           0x0000000000000000        0x0 CMakeFiles/main.dir/home/iwo/pico/pico-sdk/lib/tinyusb/src/class/dfu/dfu_device.c.obj
 .debug_info    0x0000000000000000       0x88 CMakeFiles/main.dir/home/iwo/pico/pico-sdk/lib/tinyusb/src/class/dfu/dfu_device.c.obj
 .debug_abbrev  0x0000000000000000       0x51 CMakeFiles/main.dir/home/iwo/pico/pico-sdk/lib/tinyusb/src/class/dfu/dfu_device.c.obj
 .debug_aranges
                0x0000000000000000       0x18 CMakeFiles/main.dir/home/iwo/pico/pico-sdk/lib/tinyusb/src/class/dfu/dfu_device.c.obj
 .debug_line    0x0000000000000000       0xb9 CMakeFiles/main.dir/home/iwo/pico/pico-sdk/lib/tinyusb/src/class/dfu/dfu_device.c.obj
 .debug_str     0x0000000000000000      0x1cc CMakeFiles/main.dir/home/iwo/pico/pico-sdk/lib/tinyusb/src/class/dfu/dfu_device.c.obj
 .comment       0x0000000000000000       0x5a CMakeFiles/main.dir/home/iwo/pico/pico-sdk/lib/tinyusb/src/class/dfu/dfu_device.c.obj
 .ARM.attributes
                0x0000000000000000       0x32 CMakeFiles/main.dir/home/iwo/pico/pico-sdk/lib/tinyusb/src/class/dfu/dfu_device.c.obj
 .text          0x0000000000000000        0x0 CMakeFiles/main.dir/home/iwo/pico/pico-sdk/lib/tinyusb/src/class/dfu/dfu_rt_device.c.obj
 .data          0x0000000000000000        0x0 CMakeFiles/main.dir/home/iwo/pico/pico-sdk/lib/tinyusb/src/class/dfu/dfu_rt_device.c.obj
 .bss           0x0000000000000000        0x0 CMakeFiles/main.dir/home/iwo/pico/pico-sdk/lib/tinyusb/src/class/dfu/dfu_rt_device.c.obj
 .debug_info    0x0000000000000000       0x88 CMakeFiles/main.dir/home/iwo/pico/pico-sdk/lib/tinyusb/src/class/dfu/dfu_rt_device.c.obj
 .debug_abbrev  0x0000000000000000       0x51 CMakeFiles/main.dir/home/iwo/pico/pico-sdk/lib/tinyusb/src/class/dfu/dfu_rt_device.c.obj
 .debug_aranges
                0x0000000000000000       0x18 CMakeFiles/main.dir/home/iwo/pico/pico-sdk/lib/tinyusb/src/class/dfu/dfu_rt_device.c.obj
 .debug_line    0x0000000000000000       0xb9 CMakeFiles/main.dir/home/iwo/pico/pico-sdk/lib/tinyusb/src/class/dfu/dfu_rt_device.c.obj
 .debug_str     0x0000000000000000      0x1cf CMakeFiles/main.dir/home/iwo/pico/pico-sdk/lib/tinyusb/src/class/dfu/dfu_rt_device.c.obj
 .comment       0x0000000000000000       0x5a CMakeFiles/main.dir/home/iwo/pico/pico-sdk/lib/tinyusb/src/class/dfu/dfu_rt_device.c.obj
 .ARM.attributes
                0x0000000000000000       0x32 CMakeFiles/main.dir/home/iwo/pico/pico-sdk/lib/tinyusb/src/class/dfu/dfu_rt_device.c.obj
 .text          0x0000000000000000        0x0 CMakeFiles/main.dir/home/iwo/pico/pico-sdk/lib/tinyusb/src/class/hid/hid_device.c.obj
 .data          0x0000000000000000        0x0 CMakeFiles/main.dir/home/iwo/pico/pico-sdk/lib/tinyusb/src/class/hid/hid_device.c.obj
 .bss           0x0000000000000000        0x0 CMakeFiles/main.dir/home/iwo/pico/pico-sdk/lib/tinyusb/src/class/hid/hid_device.c.obj
 .debug_info    0x0000000000000000       0x88 CMakeFiles/main.dir/home/iwo/pico/pico-sdk/lib/tinyusb/src/class/hid/hid_device.c.obj
 .debug_abbrev  0x0000000000000000       0x51 CMakeFiles/main.dir/home/iwo/pico/pico-sdk/lib/tinyusb/src/class/hid/hid_device.c.obj
 .debug_aranges
                0x0000000000000000       0x18 CMakeFiles/main.dir/home/iwo/pico/pico-sdk/lib/tinyusb/src/class/hid/hid_device.c.obj
 .debug_line    0x0000000000000000       0xb9 CMakeFiles/main.dir/home/iwo/pico/pico-sdk/lib/tinyusb/src/class/hid/hid_device.c.obj
 .debug_str     0x0000000000000000      0x1cc CMakeFiles/main.dir/home/iwo/pico/pico-sdk/lib/tinyusb/src/class/hid/hid_device.c.obj
 .comment       0x0000000000000000       0x5a CMakeFiles/main.dir/home/iwo/pico/pico-sdk/lib/tinyusb/src/class/hid/hid_device.c.obj
 .ARM.attributes
                0x0000000000000000       0x32 CMakeFiles/main.dir/home/iwo/pico/pico-sdk/lib/tinyusb/src/class/hid/hid_device.c.obj
 .text          0x0000000000000000        0x0 CMakeFiles/main.dir/home/iwo/pico/pico-sdk/lib/tinyusb/src/class/midi/midi_device.c.obj
 .data          0x0000000000000000        0x0 CMakeFiles/main.dir/home/iwo/pico/pico-sdk/lib/tinyusb/src/class/midi/midi_device.c.obj
 .bss           0x0000000000000000        0x0 CMakeFiles/main.dir/home/iwo/pico/pico-sdk/lib/tinyusb/src/class/midi/midi_device.c.obj
 .debug_info    0x0000000000000000       0x88 CMakeFiles/main.dir/home/iwo/pico/pico-sdk/lib/tinyusb/src/class/midi/midi_device.c.obj
 .debug_abbrev  0x0000000000000000       0x51 CMakeFiles/main.dir/home/iwo/pico/pico-sdk/lib/tinyusb/src/class/midi/midi_device.c.obj
 .debug_aranges
                0x0000000000000000       0x18 CMakeFiles/main.dir/home/iwo/pico/pico-sdk/lib/tinyusb/src/class/midi/midi_device.c.obj
 .debug_line    0x0000000000000000       0xb9 CMakeFiles/main.dir/home/iwo/pico/pico-sdk/lib/tinyusb/src/class/midi/midi_device.c.obj
 .debug_str     0x0000000000000000      0x1ce CMakeFiles/main.dir/home/iwo/pico/pico-sdk/lib/tinyusb/src/class/midi/midi_device.c.obj
 .comment       0x0000000000000000       0x5a CMakeFiles/main.dir/home/iwo/pico/pico-sdk/lib/tinyusb/src/class/midi/midi_device.c.obj
 .ARM.attributes
                0x0000000000000000       0x32 CMakeFiles/main.dir/home/iwo/pico/pico-sdk/lib/tinyusb/src/class/midi/midi_device.c.obj
 .text          0x0000000000000000        0x0 CMakeFiles/main.dir/home/iwo/pico/pico-sdk/lib/tinyusb/src/class/msc/msc_device.c.obj
 .data          0x0000000000000000        0x0 CMakeFiles/main.dir/home/iwo/pico/pico-sdk/lib/tinyusb/src/class/msc/msc_device.c.obj
 .bss           0x0000000000000000        0x0 CMakeFiles/main.dir/home/iwo/pico/pico-sdk/lib/tinyusb/src/class/msc/msc_device.c.obj
 .debug_info    0x0000000000000000       0x88 CMakeFiles/main.dir/home/iwo/pico/pico-sdk/lib/tinyusb/src/class/msc/msc_device.c.obj
 .debug_abbrev  0x0000000000000000       0x51 CMakeFiles/main.dir/home/iwo/pico/pico-sdk/lib/tinyusb/src/class/msc/msc_device.c.obj
 .debug_aranges
                0x0000000000000000       0x18 CMakeFiles/main.dir/home/iwo/pico/pico-sdk/lib/tinyusb/src/class/msc/msc_device.c.obj
 .debug_line    0x0000000000000000       0xb9 CMakeFiles/main.dir/home/iwo/pico/pico-sdk/lib/tinyusb/src/class/msc/msc_device.c.obj
 .debug_str     0x0000000000000000      0x1cc CMakeFiles/main.dir/home/iwo/pico/pico-sdk/lib/tinyusb/src/class/msc/msc_device.c.obj
 .comment       0x0000000000000000       0x5a CMakeFiles/main.dir/home/iwo/pico/pico-sdk/lib/tinyusb/src/class/msc/msc_device.c.obj
 .ARM.attributes
                0x0000000000000000       0x32 CMakeFiles/main.dir/home/iwo/pico/pico-sdk/lib/tinyusb/src/class/msc/msc_device.c.obj
 .text          0x0000000000000000        0x0 CMakeFiles/main.dir/home/iwo/pico/pico-sdk/lib/tinyusb/src/class/net/ecm_rndis_device.c.obj
 .data          0x0000000000000000        0x0 CMakeFiles/main.dir/home/iwo/pico/pico-sdk/lib/tinyusb/src/class/net/ecm_rndis_device.c.obj
 .bss           0x0000000000000000        0x0 CMakeFiles/main.dir/home/iwo/pico/pico-sdk/lib/tinyusb/src/class/net/ecm_rndis_device.c.obj
 .debug_info    0x0000000000000000       0x88 CMakeFiles/main.dir/home/iwo/pico/pico-sdk/lib/tinyusb/src/class/net/ecm_rndis_device.c.obj
 .debug_abbrev  0x0000000000000000       0x51 CMakeFiles/main.dir/home/iwo/pico/pico-sdk/lib/tinyusb/src/class/net/ecm_rndis_device.c.obj
 .debug_aranges
                0x0000000000000000       0x18 CMakeFiles/main.dir/home/iwo/pico/pico-sdk/lib/tinyusb/src/class/net/ecm_rndis_device.c.obj
 .debug_line    0x0000000000000000       0xb9 CMakeFiles/main.dir/home/iwo/pico/pico-sdk/lib/tinyusb/src/class/net/ecm_rndis_device.c.obj
 .debug_str     0x0000000000000000      0x1d2 CMakeFiles/main.dir/home/iwo/pico/pico-sdk/lib/tinyusb/src/class/net/ecm_rndis_device.c.obj
 .comment       0x0000000000000000       0x5a CMakeFiles/main.dir/home/iwo/pico/pico-sdk/lib/tinyusb/src/class/net/ecm_rndis_device.c.obj
 .ARM.attributes
                0x0000000000000000       0x32 CMakeFiles/main.dir/home/iwo/pico/pico-sdk/lib/tinyusb/src/class/net/ecm_rndis_device.c.obj
 .text          0x0000000000000000        0x0 CMakeFiles/main.dir/home/iwo/pico/pico-sdk/lib/tinyusb/src/class/net/ncm_device.c.obj
 .data          0x0000000000000000        0x0 CMakeFiles/main.dir/home/iwo/pico/pico-sdk/lib/tinyusb/src/class/net/ncm_device.c.obj
 .bss           0x0000000000000000        0x0 CMakeFiles/main.dir/home/iwo/pico/pico-sdk/lib/tinyusb/src/class/net/ncm_device.c.obj
 .debug_info    0x0000000000000000       0x88 CMakeFiles/main.dir/home/iwo/pico/pico-sdk/lib/tinyusb/src/class/net/ncm_device.c.obj
 .debug_abbrev  0x0000000000000000       0x51 CMakeFiles/main.dir/home/iwo/pico/pico-sdk/lib/tinyusb/src/class/net/ncm_device.c.obj
 .debug_aranges
                0x0000000000000000       0x18 CMakeFiles/main.dir/home/iwo/pico/pico-sdk/lib/tinyusb/src/class/net/ncm_device.c.obj
 .debug_line    0x0000000000000000       0xb9 CMakeFiles/main.dir/home/iwo/pico/pico-sdk/lib/tinyusb/src/class/net/ncm_device.c.obj
 .debug_str     0x0000000000000000      0x1cc CMakeFiles/main.dir/home/iwo/pico/pico-sdk/lib/tinyusb/src/class/net/ncm_device.c.obj
 .comment       0x0000000000000000       0x5a CMakeFiles/main.dir/home/iwo/pico/pico-sdk/lib/tinyusb/src/class/net/ncm_device.c.obj
 .ARM.attributes
                0x0000000000000000       0x32 CMakeFiles/main.dir/home/iwo/pico/pico-sdk/lib/tinyusb/src/class/net/ncm_device.c.obj
 .text          0x0000000000000000        0x0 CMakeFiles/main.dir/home/iwo/pico/pico-sdk/lib/tinyusb/src/class/usbtmc/usbtmc_device.c.obj
 .data          0x0000000000000000        0x0 CMakeFiles/main.dir/home/iwo/pico/pico-sdk/lib/tinyusb/src/class/usbtmc/usbtmc_device.c.obj
 .bss           0x0000000000000000        0x0 CMakeFiles/main.dir/home/iwo/pico/pico-sdk/lib/tinyusb/src/class/usbtmc/usbtmc_device.c.obj
 .debug_info    0x0000000000000000       0x88 CMakeFiles/main.dir/home/iwo/pico/pico-sdk/lib/tinyusb/src/class/usbtmc/usbtmc_device.c.obj
 .debug_abbrev  0x0000000000000000       0x51 CMakeFiles/main.dir/home/iwo/pico/pico-sdk/lib/tinyusb/src/class/usbtmc/usbtmc_device.c.obj
 .debug_aranges
                0x0000000000000000       0x18 CMakeFiles/main.dir/home/iwo/pico/pico-sdk/lib/tinyusb/src/class/usbtmc/usbtmc_device.c.obj
 .debug_line    0x0000000000000000       0xb9 CMakeFiles/main.dir/home/iwo/pico/pico-sdk/lib/tinyusb/src/class/usbtmc/usbtmc_device.c.obj
 .debug_str     0x0000000000000000      0x1d2 CMakeFiles/main.dir/home/iwo/pico/pico-sdk/lib/tinyusb/src/class/usbtmc/usbtmc_device.c.obj
 .comment       0x0000000000000000       0x5a CMakeFiles/main.dir/home/iwo/pico/pico-sdk/lib/tinyusb/src/class/usbtmc/usbtmc_device.c.obj
 .ARM.attributes
                0x0000000000000000       0x32 CMakeFiles/main.dir/home/iwo/pico/pico-sdk/lib/tinyusb/src/class/usbtmc/usbtmc_device.c.obj
 .text          0x0000000000000000        0x0 CMakeFiles/main.dir/home/iwo/pico/pico-sdk/lib/tinyusb/src/class/vendor/vendor_device.c.obj
 .data          0x0000000000000000        0x0 CMakeFiles/main.dir/home/iwo/pico/pico-sdk/lib/tinyusb/src/class/vendor/vendor_device.c.obj
 .bss           0x0000000000000000        0x0 CMakeFiles/main.dir/home/iwo/pico/pico-sdk/lib/tinyusb/src/class/vendor/vendor_device.c.obj
 .debug_info    0x0000000000000000       0x88 CMakeFiles/main.dir/home/iwo/pico/pico-sdk/lib/tinyusb/src/class/vendor/vendor_device.c.obj
 .debug_abbrev  0x0000000000000000       0x51 CMakeFiles/main.dir/home/iwo/pico/pico-sdk/lib/tinyusb/src/class/vendor/vendor_device.c.obj
 .debug_aranges
                0x0000000000000000       0x18 CMakeFiles/main.dir/home/iwo/pico/pico-sdk/lib/tinyusb/src/class/vendor/vendor_device.c.obj
 .debug_line    0x0000000000000000       0xb9 CMakeFiles/main.dir/home/iwo/pico/pico-sdk/lib/tinyusb/src/class/vendor/vendor_device.c.obj
 .debug_str     0x0000000000000000      0x1d2 CMakeFiles/main.dir/home/iwo/pico/pico-sdk/lib/tinyusb/src/class/vendor/vendor_device.c.obj
 .comment       0x0000000000000000       0x5a CMakeFiles/main.dir/home/iwo/pico/pico-sdk/lib/tinyusb/src/class/vendor/vendor_device.c.obj
 .ARM.attributes
                0x0000000000000000       0x32 CMakeFiles/main.dir/home/iwo/pico/pico-sdk/lib/tinyusb/src/class/vendor/vendor_device.c.obj
 .text          0x0000000000000000        0x0 CMakeFiles/main.dir/home/iwo/pico/pico-sdk/lib/tinyusb/src/class/video/video_device.c.obj
 .data          0x0000000000000000        0x0 CMakeFiles/main.dir/home/iwo/pico/pico-sdk/lib/tinyusb/src/class/video/video_device.c.obj
 .bss           0x0000000000000000        0x0 CMakeFiles/main.dir/home/iwo/pico/pico-sdk/lib/tinyusb/src/class/video/video_device.c.obj
 .debug_info    0x0000000000000000       0x88 CMakeFiles/main.dir/home/iwo/pico/pico-sdk/lib/tinyusb/src/class/video/video_device.c.obj
 .debug_abbrev  0x0000000000000000       0x51 CMakeFiles/main.dir/home/iwo/pico/pico-sdk/lib/tinyusb/src/class/video/video_device.c.obj
 .debug_aranges
                0x0000000000000000       0x18 CMakeFiles/main.dir/home/iwo/pico/pico-sdk/lib/tinyusb/src/class/video/video_device.c.obj
 .debug_line    0x0000000000000000       0xb9 CMakeFiles/main.dir/home/iwo/pico/pico-sdk/lib/tinyusb/src/class/video/video_device.c.obj
 .debug_str     0x0000000000000000      0x1d0 CMakeFiles/main.dir/home/iwo/pico/pico-sdk/lib/tinyusb/src/class/video/video_device.c.obj
 .comment       0x0000000000000000       0x5a CMakeFiles/main.dir/home/iwo/pico/pico-sdk/lib/tinyusb/src/class/video/video_device.c.obj
 .ARM.attributes
                0x0000000000000000       0x32 CMakeFiles/main.dir/home/iwo/pico/pico-sdk/lib/tinyusb/src/class/video/video_device.c.obj
 .text          0x0000000000000000        0x0 CMakeFiles/main.dir/home/iwo/pico/pico-sdk/lib/tinyusb/src/tusb.c.obj
 .data          0x0000000000000000        0x0 CMakeFiles/main.dir/home/iwo/pico/pico-sdk/lib/tinyusb/src/tusb.c.obj
 .bss           0x0000000000000000        0x0 CMakeFiles/main.dir/home/iwo/pico/pico-sdk/lib/tinyusb/src/tusb.c.obj
 .rodata.dump_str_line.str1.4
                0x0000000000000000        0x7 CMakeFiles/main.dir/home/iwo/pico/pico-sdk/lib/tinyusb/src/tusb.c.obj
 .text.dump_str_line
                0x0000000000000000       0x40 CMakeFiles/main.dir/home/iwo/pico/pico-sdk/lib/tinyusb/src/tusb.c.obj
 .text.tu_desc_get_interface_total_len
                0x0000000000000000       0x3e CMakeFiles/main.dir/home/iwo/pico/pico-sdk/lib/tinyusb/src/tusb.c.obj
 .rodata.tu_print_mem.str1.4
                0x0000000000000000       0x15 CMakeFiles/main.dir/home/iwo/pico/pico-sdk/lib/tinyusb/src/tusb.c.obj
 .text.tu_print_mem
                0x0000000000000000       0xe0 CMakeFiles/main.dir/home/iwo/pico/pico-sdk/lib/tinyusb/src/tusb.c.obj
 .rodata.str1.4
                0x0000000000000000      0x132 CMakeFiles/main.dir/home/iwo/pico/pico-sdk/lib/tinyusb/src/tusb.c.obj
 .rodata.tusb_strerr
                0x0000000000000000       0x2c CMakeFiles/main.dir/home/iwo/pico/pico-sdk/lib/tinyusb/src/tusb.c.obj
 .text          0x0000000000000000        0x0 CMakeFiles/main.dir/home/iwo/pico/pico-sdk/lib/tinyusb/src/common/tusb_fifo.c.obj
 .data          0x0000000000000000        0x0 CMakeFiles/main.dir/home/iwo/pico/pico-sdk/lib/tinyusb/src/common/tusb_fifo.c.obj
 .bss           0x0000000000000000        0x0 CMakeFiles/main.dir/home/iwo/pico/pico-sdk/lib/tinyusb/src/common/tusb_fifo.c.obj
 .text.tu_fifo_full
                0x0000000000000000       0x24 CMakeFiles/main.dir/home/iwo/pico/pico-sdk/lib/tinyusb/src/common/tusb_fifo.c.obj
 .text.tu_fifo_overflowed
                0x0000000000000000       0x22 CMakeFiles/main.dir/home/iwo/pico/pico-sdk/lib/tinyusb/src/common/tusb_fifo.c.obj
 .text.tu_fifo_correct_read_pointer
                0x0000000000000000       0x2c CMakeFiles/main.dir/home/iwo/pico/pico-sdk/lib/tinyusb/src/common/tusb_fifo.c.obj
 .text.tu_fifo_read_n_const_addr_full_words
                0x0000000000000000        0xa CMakeFiles/main.dir/home/iwo/pico/pico-sdk/lib/tinyusb/src/common/tusb_fifo.c.obj
 .text.tu_fifo_peek
                0x0000000000000000       0x34 CMakeFiles/main.dir/home/iwo/pico/pico-sdk/lib/tinyusb/src/common/tusb_fifo.c.obj
 .text.tu_fifo_peek_n
                0x0000000000000000       0x44 CMakeFiles/main.dir/home/iwo/pico/pico-sdk/lib/tinyusb/src/common/tusb_fifo.c.obj
 .text.tu_fifo_write_n_const_addr_full_words
                0x0000000000000000        0xa CMakeFiles/main.dir/home/iwo/pico/pico-sdk/lib/tinyusb/src/common/tusb_fifo.c.obj
 .text.tu_fifo_advance_write_pointer
                0x0000000000000000       0x12 CMakeFiles/main.dir/home/iwo/pico/pico-sdk/lib/tinyusb/src/common/tusb_fifo.c.obj
 .text.tu_fifo_advance_read_pointer
                0x0000000000000000       0x12 CMakeFiles/main.dir/home/iwo/pico/pico-sdk/lib/tinyusb/src/common/tusb_fifo.c.obj
 .text.tu_fifo_get_read_info
                0x0000000000000000       0x9e CMakeFiles/main.dir/home/iwo/pico/pico-sdk/lib/tinyusb/src/common/tusb_fifo.c.obj
 .text.tu_fifo_get_write_info
                0x0000000000000000       0x7a CMakeFiles/main.dir/home/iwo/pico/pico-sdk/lib/tinyusb/src/common/tusb_fifo.c.obj
 .text          0x0000000000000000        0x0 CMakeFiles/main.dir/home/iwo/pico/pico-sdk/src/rp2_common/pico_fix/rp2040_usb_device_enumeration/rp2040_usb_device_enumeration.c.obj
 .data          0x0000000000000000        0x0 CMakeFiles/main.dir/home/iwo/pico/pico-sdk/src/rp2_common/pico_fix/rp2040_usb_device_enumeration/rp2040_usb_device_enumeration.c.obj
 .bss           0x0000000000000000        0x0 CMakeFiles/main.dir/home/iwo/pico/pico-sdk/src/rp2_common/pico_fix/rp2040_usb_device_enumeration/rp2040_usb_device_enumeration.c.obj
 .text.hw_enumeration_fix_finish
                0x0000000000000000       0x40 CMakeFiles/main.dir/home/iwo/pico/pico-sdk/src/rp2_common/pico_fix/rp2040_usb_device_enumeration/rp2040_usb_device_enumeration.c.obj
 .text.hw_enumeration_fix_force_ls_j_done
                0x0000000000000000        0xc CMakeFiles/main.dir/home/iwo/pico/pico-sdk/src/rp2_common/pico_fix/rp2040_usb_device_enumeration/rp2040_usb_device_enumeration.c.obj
 .rodata.hw_enumeration_fix_force_ls_j.str1.4
                0x0000000000000000      0x10a CMakeFiles/main.dir/home/iwo/pico/pico-sdk/src/rp2_common/pico_fix/rp2040_usb_device_enumeration/rp2040_usb_device_enumeration.c.obj
 .text.hw_enumeration_fix_force_ls_j
                0x0000000000000000      0x128 CMakeFiles/main.dir/home/iwo/pico/pico-sdk/src/rp2_common/pico_fix/rp2040_usb_device_enumeration/rp2040_usb_device_enumeration.c.obj
 .text.hw_enumeration_fix_wait_se0_callback
                0x0000000000000000       0x24 CMakeFiles/main.dir/home/iwo/pico/pico-sdk/src/rp2_common/pico_fix/rp2040_usb_device_enumeration/rp2040_usb_device_enumeration.c.obj
 .text.hw_enumeration_fix_wait_se0
                0x0000000000000000       0x88 CMakeFiles/main.dir/home/iwo/pico/pico-sdk/src/rp2_common/pico_fix/rp2040_usb_device_enumeration/rp2040_usb_device_enumeration.c.obj
 .text.rp2040_usb_device_enumeration_fix
                0x0000000000000000       0x12 CMakeFiles/main.dir/home/iwo/pico/pico-sdk/src/rp2_common/pico_fix/rp2040_usb_device_enumeration/rp2040_usb_device_enumeration.c.obj
 .bss.gpio_ctrl_prev
                0x0000000000000000        0x4 CMakeFiles/main.dir/home/iwo/pico/pico-sdk/src/rp2_common/pico_fix/rp2040_usb_device_enumeration/rp2040_usb_device_enumeration.c.obj
 .bss.pad_ctrl_prev
                0x0000000000000000        0x4 CMakeFiles/main.dir/home/iwo/pico/pico-sdk/src/rp2_common/pico_fix/rp2040_usb_device_enumeration/rp2040_usb_device_enumeration.c.obj
 .rodata.__func__.4193
                0x0000000000000000       0x15 CMakeFiles/main.dir/home/iwo/pico/pico-sdk/src/rp2_common/pico_fix/rp2040_usb_device_enumeration/rp2040_usb_device_enumeration.c.obj
 .rodata.__func__.4810
                0x0000000000000000       0x1e CMakeFiles/main.dir/home/iwo/pico/pico-sdk/src/rp2_common/pico_fix/rp2040_usb_device_enumeration/rp2040_usb_device_enumeration.c.obj
 .debug_info    0x0000000000000000      0xe11 CMakeFiles/main.dir/home/iwo/pico/pico-sdk/src/rp2_common/pico_fix/rp2040_usb_device_enumeration/rp2040_usb_device_enumeration.c.obj
 .debug_abbrev  0x0000000000000000      0x3dd CMakeFiles/main.dir/home/iwo/pico/pico-sdk/src/rp2_common/pico_fix/rp2040_usb_device_enumeration/rp2040_usb_device_enumeration.c.obj
 .debug_loc     0x0000000000000000      0x519 CMakeFiles/main.dir/home/iwo/pico/pico-sdk/src/rp2_common/pico_fix/rp2040_usb_device_enumeration/rp2040_usb_device_enumeration.c.obj
 .debug_aranges
                0x0000000000000000       0x48 CMakeFiles/main.dir/home/iwo/pico/pico-sdk/src/rp2_common/pico_fix/rp2040_usb_device_enumeration/rp2040_usb_device_enumeration.c.obj
 .debug_ranges  0x0000000000000000      0x158 CMakeFiles/main.dir/home/iwo/pico/pico-sdk/src/rp2_common/pico_fix/rp2040_usb_device_enumeration/rp2040_usb_device_enumeration.c.obj
 .debug_line    0x0000000000000000      0x607 CMakeFiles/main.dir/home/iwo/pico/pico-sdk/src/rp2_common/pico_fix/rp2040_usb_device_enumeration/rp2040_usb_device_enumeration.c.obj
 .debug_str     0x0000000000000000      0x762 CMakeFiles/main.dir/home/iwo/pico/pico-sdk/src/rp2_common/pico_fix/rp2040_usb_device_enumeration/rp2040_usb_device_enumeration.c.obj
 .comment       0x0000000000000000       0x5a CMakeFiles/main.dir/home/iwo/pico/pico-sdk/src/rp2_common/pico_fix/rp2040_usb_device_enumeration/rp2040_usb_device_enumeration.c.obj
 .debug_frame   0x0000000000000000       0xa8 CMakeFiles/main.dir/home/iwo/pico/pico-sdk/src/rp2_common/pico_fix/rp2040_usb_device_enumeration/rp2040_usb_device_enumeration.c.obj
 .ARM.attributes
                0x0000000000000000       0x2c CMakeFiles/main.dir/home/iwo/pico/pico-sdk/src/rp2_common/pico_fix/rp2040_usb_device_enumeration/rp2040_usb_device_enumeration.c.obj
 .text          0x0000000000000000        0x0 CMakeFiles/main.dir/home/iwo/pico/pico-sdk/src/rp2_common/pico_unique_id/unique_id.c.obj
 .data          0x0000000000000000        0x0 CMakeFiles/main.dir/home/iwo/pico/pico-sdk/src/rp2_common/pico_unique_id/unique_id.c.obj
 .bss           0x0000000000000000        0x0 CMakeFiles/main.dir/home/iwo/pico/pico-sdk/src/rp2_common/pico_unique_id/unique_id.c.obj
 .text.pico_get_unique_board_id
                0x0000000000000000       0x10 CMakeFiles/main.dir/home/iwo/pico/pico-sdk/src/rp2_common/pico_unique_id/unique_id.c.obj
 .text          0x0000000000000000        0x0 CMakeFiles/main.dir/home/iwo/pico/pico-sdk/src/rp2_common/hardware_flash/flash.c.obj
 .data          0x0000000000000000        0x0 CMakeFiles/main.dir/home/iwo/pico/pico-sdk/src/rp2_common/hardware_flash/flash.c.obj
 .bss           0x0000000000000000        0x0 CMakeFiles/main.dir/home/iwo/pico/pico-sdk/src/rp2_common/hardware_flash/flash.c.obj
 .time_critical.flash_range_erase
                0x0000000000000000       0xb8 CMakeFiles/main.dir/home/iwo/pico/pico-sdk/src/rp2_common/hardware_flash/flash.c.obj
 .time_critical.flash_range_program
                0x0000000000000000       0xb8 CMakeFiles/main.dir/home/iwo/pico/pico-sdk/src/rp2_common/hardware_flash/flash.c.obj
 .rodata.__func__.4434
                0x0000000000000000       0x12 CMakeFiles/main.dir/home/iwo/pico/pico-sdk/src/rp2_common/hardware_flash/flash.c.obj
 .rodata.__func__.4444
                0x0000000000000000       0x14 CMakeFiles/main.dir/home/iwo/pico/pico-sdk/src/rp2_common/hardware_flash/flash.c.obj
 .text          0x0000000000000000        0x0 CMakeFiles/main.dir/home/iwo/pico/pico-sdk/src/rp2_common/hardware_spi/spi.c.obj
 .data          0x0000000000000000        0x0 CMakeFiles/main.dir/home/iwo/pico/pico-sdk/src/rp2_common/hardware_spi/spi.c.obj
 .bss           0x0000000000000000        0x0 CMakeFiles/main.dir/home/iwo/pico/pico-sdk/src/rp2_common/hardware_spi/spi.c.obj
 .text.spi_deinit
                0x0000000000000000       0x34 CMakeFiles/main.dir/home/iwo/pico/pico-sdk/src/rp2_common/hardware_spi/spi.c.obj
 .text.spi_get_baudrate
                0x0000000000000000       0x1e CMakeFiles/main.dir/home/iwo/pico/pico-sdk/src/rp2_common/hardware_spi/spi.c.obj
 .time_critical.spi_write_read_blocking
                0x0000000000000000       0x42 CMakeFiles/main.dir/home/iwo/pico/pico-sdk/src/rp2_common/hardware_spi/spi.c.obj
 .time_critical.spi_read_blocking
                0x0000000000000000       0x3e CMakeFiles/main.dir/home/iwo/pico/pico-sdk/src/rp2_common/hardware_spi/spi.c.obj
 .time_critical.spi_write16_read16_blocking
                0x0000000000000000       0x42 CMakeFiles/main.dir/home/iwo/pico/pico-sdk/src/rp2_common/hardware_spi/spi.c.obj
 .time_critical.spi_write16_blocking
                0x0000000000000000       0x3c CMakeFiles/main.dir/home/iwo/pico/pico-sdk/src/rp2_common/hardware_spi/spi.c.obj
 .time_critical.spi_read16_blocking
                0x0000000000000000       0x3e CMakeFiles/main.dir/home/iwo/pico/pico-sdk/src/rp2_common/hardware_spi/spi.c.obj
 .text          0x0000000000000000        0x0 CMakeFiles/main.dir/home/iwo/pico/pico-sdk/src/rp2_common/hardware_i2c/i2c.c.obj
 .data          0x0000000000000000        0x0 CMakeFiles/main.dir/home/iwo/pico/pico-sdk/src/rp2_common/hardware_i2c/i2c.c.obj
 .bss           0x0000000000000000        0x0 CMakeFiles/main.dir/home/iwo/pico/pico-sdk/src/rp2_common/hardware_i2c/i2c.c.obj
 .text.i2c_write_blocking_internal
                0x0000000000000000      0x13c CMakeFiles/main.dir/home/iwo/pico/pico-sdk/src/rp2_common/hardware_i2c/i2c.c.obj
 .text.i2c_read_blocking_internal
                0x0000000000000000       0xe0 CMakeFiles/main.dir/home/iwo/pico/pico-sdk/src/rp2_common/hardware_i2c/i2c.c.obj
 .text.i2c_deinit
                0x0000000000000000       0x1c CMakeFiles/main.dir/home/iwo/pico/pico-sdk/src/rp2_common/hardware_i2c/i2c.c.obj
 .text.i2c_set_slave_mode
                0x0000000000000000       0x48 CMakeFiles/main.dir/home/iwo/pico/pico-sdk/src/rp2_common/hardware_i2c/i2c.c.obj
 .text.i2c_write_blocking
                0x0000000000000000       0x18 CMakeFiles/main.dir/home/iwo/pico/pico-sdk/src/rp2_common/hardware_i2c/i2c.c.obj
 .text.i2c_write_blocking_until
                0x0000000000000000       0x3e CMakeFiles/main.dir/home/iwo/pico/pico-sdk/src/rp2_common/hardware_i2c/i2c.c.obj
 .text.i2c_write_timeout_per_char_us
                0x0000000000000000       0x3e CMakeFiles/main.dir/home/iwo/pico/pico-sdk/src/rp2_common/hardware_i2c/i2c.c.obj
 .text.i2c_read_blocking
                0x0000000000000000       0x18 CMakeFiles/main.dir/home/iwo/pico/pico-sdk/src/rp2_common/hardware_i2c/i2c.c.obj
 .text.i2c_read_blocking_until
                0x0000000000000000       0x3e CMakeFiles/main.dir/home/iwo/pico/pico-sdk/src/rp2_common/hardware_i2c/i2c.c.obj
 .text.i2c_read_timeout_per_char_us
                0x0000000000000000       0x3e CMakeFiles/main.dir/home/iwo/pico/pico-sdk/src/rp2_common/hardware_i2c/i2c.c.obj
 .text          0x0000000000000000        0x0 CMakeFiles/main.dir/home/iwo/pico/pico-sdk/src/rp2_common/hardware_adc/adc.c.obj
 .data          0x0000000000000000        0x0 CMakeFiles/main.dir/home/iwo/pico/pico-sdk/src/rp2_common/hardware_adc/adc.c.obj
 .bss           0x0000000000000000        0x0 CMakeFiles/main.dir/home/iwo/pico/pico-sdk/src/rp2_common/hardware_adc/adc.c.obj
 .text.adc_init
                0x0000000000000000       0x34 CMakeFiles/main.dir/home/iwo/pico/pico-sdk/src/rp2_common/hardware_adc/adc.c.obj
 .debug_info    0x0000000000000000      0x2c1 CMakeFiles/main.dir/home/iwo/pico/pico-sdk/src/rp2_common/hardware_adc/adc.c.obj
 .debug_abbrev  0x0000000000000000      0x108 CMakeFiles/main.dir/home/iwo/pico/pico-sdk/src/rp2_common/hardware_adc/adc.c.obj
 .debug_loc     0x0000000000000000       0x8c CMakeFiles/main.dir/home/iwo/pico/pico-sdk/src/rp2_common/hardware_adc/adc.c.obj
 .debug_aranges
                0x0000000000000000       0x20 CMakeFiles/main.dir/home/iwo/pico/pico-sdk/src/rp2_common/hardware_adc/adc.c.obj
 .debug_ranges  0x0000000000000000       0x28 CMakeFiles/main.dir/home/iwo/pico/pico-sdk/src/rp2_common/hardware_adc/adc.c.obj
 .debug_line    0x0000000000000000      0x270 CMakeFiles/main.dir/home/iwo/pico/pico-sdk/src/rp2_common/hardware_adc/adc.c.obj
 .debug_str     0x0000000000000000      0x277 CMakeFiles/main.dir/home/iwo/pico/pico-sdk/src/rp2_common/hardware_adc/adc.c.obj
 .comment       0x0000000000000000       0x5a CMakeFiles/main.dir/home/iwo/pico/pico-sdk/src/rp2_common/hardware_adc/adc.c.obj
 .debug_frame   0x0000000000000000       0x20 CMakeFiles/main.dir/home/iwo/pico/pico-sdk/src/rp2_common/hardware_adc/adc.c.obj
 .ARM.attributes
                0x0000000000000000       0x2c CMakeFiles/main.dir/home/iwo/pico/pico-sdk/src/rp2_common/hardware_adc/adc.c.obj
 .text          0x0000000000000000        0x0 examples/libexamples.a(LCD_2in_test.c.obj)
 .data          0x0000000000000000        0x0 examples/libexamples.a(LCD_2in_test.c.obj)
 .bss           0x0000000000000000        0x0 examples/libexamples.a(LCD_2in_test.c.obj)
 .text.Set_Origin
                0x0000000000000000       0x14 examples/libexamples.a(LCD_2in_test.c.obj)
 .text.Draw_Point_Up_To_Origin
                0x0000000000000000       0x3c examples/libexamples.a(LCD_2in_test.c.obj)
 .text.Draw_Point_Up_To_Origin_From_Data
                0x0000000000000000       0x2c examples/libexamples.a(LCD_2in_test.c.obj)
 .text.Draw_Line_Up_To_Origin
                0x0000000000000000       0x5c examples/libexamples.a(LCD_2in_test.c.obj)
 .rodata.Draw_Scale.str1.4
                0x0000000000000000        0x3 examples/libexamples.a(LCD_2in_test.c.obj)
 .text.Draw_Scale
                0x0000000000000000      0x1dc examples/libexamples.a(LCD_2in_test.c.obj)
 .text.Draw_Cartesian
                0x0000000000000000       0xd0 examples/libexamples.a(LCD_2in_test.c.obj)
 .text.reserved_addr
                0x0000000000000000       0x1a examples/libexamples.a(LCD_2in_test.c.obj)
 .text.Draw_Digit
                0x0000000000000000       0x38 examples/libexamples.a(LCD_2in_test.c.obj)
 .text.draw_three_digit_param
                0x0000000000000000       0x50 examples/libexamples.a(LCD_2in_test.c.obj)
 .data.x_origin
                0x0000000000000000        0x4 examples/libexamples.a(LCD_2in_test.c.obj)
 .data.y_origin
                0x0000000000000000        0x4 examples/libexamples.a(LCD_2in_test.c.obj)
 .text          0x0000000000000000        0x0 lib/LCD/libLCD.a(LCD_2in.c.obj)
 .data          0x0000000000000000        0x0 lib/LCD/libLCD.a(LCD_2in.c.obj)
 .bss           0x0000000000000000        0x0 lib/LCD/libLCD.a(LCD_2in.c.obj)
 .text.LCD_2IN_SendData_16Bit
                0x0000000000000000       0x2a lib/LCD/libLCD.a(LCD_2in.c.obj)
 .text.LCD_2IN_DisplayWindows
                0x0000000000000000       0x5c lib/LCD/libLCD.a(LCD_2in.c.obj)
 .text.LCD_2IN_DisplayPoint
                0x0000000000000000       0x14 lib/LCD/libLCD.a(LCD_2in.c.obj)
 .rodata.Handler_2IN_LCD.str1.4
                0x0000000000000000       0x18 lib/LCD/libLCD.a(LCD_2in.c.obj)
 .text.Handler_2IN_LCD
                0x0000000000000000       0x18 lib/LCD/libLCD.a(LCD_2in.c.obj)
 .text          0x0000000000000000        0x0 lib/Infrared/libInfrared.a(Infrared.c.obj)
 .data          0x0000000000000000        0x0 lib/Infrared/libInfrared.a(Infrared.c.obj)
 .bss           0x0000000000000000        0x0 lib/Infrared/libInfrared.a(Infrared.c.obj)
 .rodata.Read_Infrared_Value.str1.4
                0x0000000000000000       0x15 lib/Infrared/libInfrared.a(Infrared.c.obj)
 .text.Read_Infrared_Value
                0x0000000000000000      0x13c lib/Infrared/libInfrared.a(Infrared.c.obj)
 .text          0x0000000000000000        0x0 lib/GUI/libGUI.a(GUI_Paint.c.obj)
 .data          0x0000000000000000        0x0 lib/GUI/libGUI.a(GUI_Paint.c.obj)
 .bss           0x0000000000000000        0x0 lib/GUI/libGUI.a(GUI_Paint.c.obj)
 .text.Paint_SelectImage
                0x0000000000000000        0xc lib/GUI/libGUI.a(GUI_Paint.c.obj)
 .text.Paint_SetMirroring
                0x0000000000000000       0x10 lib/GUI/libGUI.a(GUI_Paint.c.obj)
 .text.Paint_ClearWindows
                0x0000000000000000       0x3c lib/GUI/libGUI.a(GUI_Paint.c.obj)
 .text.Paint_DrawRectangle
                0x0000000000000000       0xd0 lib/GUI/libGUI.a(GUI_Paint.c.obj)
 .text.Paint_DrawString_CN
                0x0000000000000000      0x1e4 lib/GUI/libGUI.a(GUI_Paint.c.obj)
 .text.Paint_DrawNum
                0x0000000000000000      0x138 lib/GUI/libGUI.a(GUI_Paint.c.obj)
 .rodata.Paint_DrawTime.str1.4
                0x0000000000000000        0xb lib/GUI/libGUI.a(GUI_Paint.c.obj)
 .text.Paint_DrawTime
                0x0000000000000000      0x17c lib/GUI/libGUI.a(GUI_Paint.c.obj)
 .text.Paint_DrawImage
                0x0000000000000000       0x7c lib/GUI/libGUI.a(GUI_Paint.c.obj)
 .text.Paint_DrawImage1
                0x0000000000000000       0x7c lib/GUI/libGUI.a(GUI_Paint.c.obj)
 .text.Paint_DrawBitMap
                0x0000000000000000       0x34 lib/GUI/libGUI.a(GUI_Paint.c.obj)
 .text.Paint_DrawBitMap_Block
                0x0000000000000000       0x40 lib/GUI/libGUI.a(GUI_Paint.c.obj)
 .text.Paint_BmpWindows
                0x0000000000000000       0x78 lib/GUI/libGUI.a(GUI_Paint.c.obj)
 .text          0x0000000000000000        0x0 lib/Fonts/libFonts.a(font20.c.obj)
 .bss           0x0000000000000000        0x0 lib/Fonts/libFonts.a(font20.c.obj)
 .text          0x0000000000000000        0x0 lib/Fonts/libFonts.a(font8.c.obj)
 .data          0x0000000000000000        0x8 lib/Fonts/libFonts.a(font8.c.obj)
 .bss           0x0000000000000000        0x0 lib/Fonts/libFonts.a(font8.c.obj)
 .rodata        0x0000000000000000      0x2f8 lib/Fonts/libFonts.a(font8.c.obj)
 .debug_info    0x0000000000000000      0x21b lib/Fonts/libFonts.a(font8.c.obj)
 .debug_abbrev  0x0000000000000000       0xc6 lib/Fonts/libFonts.a(font8.c.obj)
 .debug_aranges
                0x0000000000000000       0x18 lib/Fonts/libFonts.a(font8.c.obj)
 .debug_line    0x0000000000000000       0x97 lib/Fonts/libFonts.a(font8.c.obj)
 .debug_str     0x0000000000000000      0x218 lib/Fonts/libFonts.a(font8.c.obj)
 .comment       0x0000000000000000       0x5a lib/Fonts/libFonts.a(font8.c.obj)
 .ARM.attributes
                0x0000000000000000       0x32 lib/Fonts/libFonts.a(font8.c.obj)
 .text          0x0000000000000000        0x0 lib/Config/libConfig.a(DEV_Config.c.obj)
 .data          0x0000000000000000        0x0 lib/Config/libConfig.a(DEV_Config.c.obj)
 .bss           0x0000000000000000        0x0 lib/Config/libConfig.a(DEV_Config.c.obj)
 .text.DEV_I2C_Write
                0x0000000000000000       0x24 lib/Config/libConfig.a(DEV_Config.c.obj)
 .text.DEV_I2C_Write_nByte
                0x0000000000000000       0x1c lib/Config/libConfig.a(DEV_Config.c.obj)
 .text.DEV_I2C_ReadByte
                0x0000000000000000       0x38 lib/Config/libConfig.a(DEV_Config.c.obj)
 .text.DEV_KEY_Config
                0x0000000000000000       0x1e lib/Config/libConfig.a(DEV_Config.c.obj)
 .text.DEV_Module_Exit
                0x0000000000000000        0x2 lib/Config/libConfig.a(DEV_Config.c.obj)
 .text          0x0000000000000000        0x0 /tmp/ccN530LL.o
 .data          0x0000000000000000        0x0 /tmp/ccN530LL.o
 .bss           0x0000000000000000        0x0 /tmp/ccN530LL.o
 .data          0x0000000000000000        0x0 /usr/lib/gcc/arm-none-eabi/9.2.1/thumb/v6-m/nofp/libgcc.a(_dvmd_tls.o)
 .bss           0x0000000000000000        0x0 /usr/lib/gcc/arm-none-eabi/9.2.1/thumb/v6-m/nofp/libgcc.a(_dvmd_tls.o)
 .text          0x0000000000000000       0x10 /usr/lib/gcc/arm-none-eabi/9.2.1/../../../arm-none-eabi/lib/thumb/v6-m/nofp/libg.a(lib_a-atexit.o)
 .data          0x0000000000000000        0x0 /usr/lib/gcc/arm-none-eabi/9.2.1/../../../arm-none-eabi/lib/thumb/v6-m/nofp/libg.a(lib_a-atexit.o)
 .bss           0x0000000000000000        0x0 /usr/lib/gcc/arm-none-eabi/9.2.1/../../../arm-none-eabi/lib/thumb/v6-m/nofp/libg.a(lib_a-atexit.o)
 .debug_info    0x0000000000000000      0x995 /usr/lib/gcc/arm-none-eabi/9.2.1/../../../arm-none-eabi/lib/thumb/v6-m/nofp/libg.a(lib_a-atexit.o)
 .debug_abbrev  0x0000000000000000      0x22f /usr/lib/gcc/arm-none-eabi/9.2.1/../../../arm-none-eabi/lib/thumb/v6-m/nofp/libg.a(lib_a-atexit.o)
 .debug_loc     0x0000000000000000       0x32 /usr/lib/gcc/arm-none-eabi/9.2.1/../../../arm-none-eabi/lib/thumb/v6-m/nofp/libg.a(lib_a-atexit.o)
 .debug_aranges
                0x0000000000000000       0x20 /usr/lib/gcc/arm-none-eabi/9.2.1/../../../arm-none-eabi/lib/thumb/v6-m/nofp/libg.a(lib_a-atexit.o)
 .debug_line    0x0000000000000000      0x152 /usr/lib/gcc/arm-none-eabi/9.2.1/../../../arm-none-eabi/lib/thumb/v6-m/nofp/libg.a(lib_a-atexit.o)
 .debug_str     0x0000000000000000      0x5e8 /usr/lib/gcc/arm-none-eabi/9.2.1/../../../arm-none-eabi/lib/thumb/v6-m/nofp/libg.a(lib_a-atexit.o)
 .comment       0x0000000000000000       0x5a /usr/lib/gcc/arm-none-eabi/9.2.1/../../../arm-none-eabi/lib/thumb/v6-m/nofp/libg.a(lib_a-atexit.o)
 .debug_frame   0x0000000000000000       0x28 /usr/lib/gcc/arm-none-eabi/9.2.1/../../../arm-none-eabi/lib/thumb/v6-m/nofp/libg.a(lib_a-atexit.o)
 .ARM.attributes
                0x0000000000000000       0x2c /usr/lib/gcc/arm-none-eabi/9.2.1/../../../arm-none-eabi/lib/thumb/v6-m/nofp/libg.a(lib_a-atexit.o)
 .text          0x0000000000000000       0x18 /usr/lib/gcc/arm-none-eabi/9.2.1/../../../arm-none-eabi/lib/thumb/v6-m/nofp/libg.a(lib_a-calloc.o)
 .data          0x0000000000000000        0x0 /usr/lib/gcc/arm-none-eabi/9.2.1/../../../arm-none-eabi/lib/thumb/v6-m/nofp/libg.a(lib_a-calloc.o)
 .bss           0x0000000000000000        0x0 /usr/lib/gcc/arm-none-eabi/9.2.1/../../../arm-none-eabi/lib/thumb/v6-m/nofp/libg.a(lib_a-calloc.o)
 .debug_info    0x0000000000000000      0x988 /usr/lib/gcc/arm-none-eabi/9.2.1/../../../arm-none-eabi/lib/thumb/v6-m/nofp/libg.a(lib_a-calloc.o)
 .debug_abbrev  0x0000000000000000      0x225 /usr/lib/gcc/arm-none-eabi/9.2.1/../../../arm-none-eabi/lib/thumb/v6-m/nofp/libg.a(lib_a-calloc.o)
 .debug_loc     0x0000000000000000       0x64 /usr/lib/gcc/arm-none-eabi/9.2.1/../../../arm-none-eabi/lib/thumb/v6-m/nofp/libg.a(lib_a-calloc.o)
 .debug_aranges
                0x0000000000000000       0x20 /usr/lib/gcc/arm-none-eabi/9.2.1/../../../arm-none-eabi/lib/thumb/v6-m/nofp/libg.a(lib_a-calloc.o)
 .debug_line    0x0000000000000000      0x14c /usr/lib/gcc/arm-none-eabi/9.2.1/../../../arm-none-eabi/lib/thumb/v6-m/nofp/libg.a(lib_a-calloc.o)
 .debug_str     0x0000000000000000      0x5ba /usr/lib/gcc/arm-none-eabi/9.2.1/../../../arm-none-eabi/lib/thumb/v6-m/nofp/libg.a(lib_a-calloc.o)
 .comment       0x0000000000000000       0x5a /usr/lib/gcc/arm-none-eabi/9.2.1/../../../arm-none-eabi/lib/thumb/v6-m/nofp/libg.a(lib_a-calloc.o)
 .debug_frame   0x0000000000000000       0x28 /usr/lib/gcc/arm-none-eabi/9.2.1/../../../arm-none-eabi/lib/thumb/v6-m/nofp/libg.a(lib_a-calloc.o)
 .ARM.attributes
                0x0000000000000000       0x2c /usr/lib/gcc/arm-none-eabi/9.2.1/../../../arm-none-eabi/lib/thumb/v6-m/nofp/libg.a(lib_a-calloc.o)
 .text          0x0000000000000000       0x5c /usr/lib/gcc/arm-none-eabi/9.2.1/../../../arm-none-eabi/lib/thumb/v6-m/nofp/libg.a(lib_a-callocr.o)
 .data          0x0000000000000000        0x0 /usr/lib/gcc/arm-none-eabi/9.2.1/../../../arm-none-eabi/lib/thumb/v6-m/nofp/libg.a(lib_a-callocr.o)
 .bss           0x0000000000000000        0x0 /usr/lib/gcc/arm-none-eabi/9.2.1/../../../arm-none-eabi/lib/thumb/v6-m/nofp/libg.a(lib_a-callocr.o)
 .debug_info    0x0000000000000000      0xc2f /usr/lib/gcc/arm-none-eabi/9.2.1/../../../arm-none-eabi/lib/thumb/v6-m/nofp/libg.a(lib_a-callocr.o)
 .debug_abbrev  0x0000000000000000      0x275 /usr/lib/gcc/arm-none-eabi/9.2.1/../../../arm-none-eabi/lib/thumb/v6-m/nofp/libg.a(lib_a-callocr.o)
 .debug_loc     0x0000000000000000      0x299 /usr/lib/gcc/arm-none-eabi/9.2.1/../../../arm-none-eabi/lib/thumb/v6-m/nofp/libg.a(lib_a-callocr.o)
 .debug_aranges
                0x0000000000000000       0x20 /usr/lib/gcc/arm-none-eabi/9.2.1/../../../arm-none-eabi/lib/thumb/v6-m/nofp/libg.a(lib_a-callocr.o)
 .debug_ranges  0x0000000000000000       0x40 /usr/lib/gcc/arm-none-eabi/9.2.1/../../../arm-none-eabi/lib/thumb/v6-m/nofp/libg.a(lib_a-callocr.o)
 .debug_line    0x0000000000000000      0x1e7 /usr/lib/gcc/arm-none-eabi/9.2.1/../../../arm-none-eabi/lib/thumb/v6-m/nofp/libg.a(lib_a-callocr.o)
 .debug_str     0x0000000000000000      0x729 /usr/lib/gcc/arm-none-eabi/9.2.1/../../../arm-none-eabi/lib/thumb/v6-m/nofp/libg.a(lib_a-callocr.o)
 .comment       0x0000000000000000       0x5a /usr/lib/gcc/arm-none-eabi/9.2.1/../../../arm-none-eabi/lib/thumb/v6-m/nofp/libg.a(lib_a-callocr.o)
 .debug_frame   0x0000000000000000       0x28 /usr/lib/gcc/arm-none-eabi/9.2.1/../../../arm-none-eabi/lib/thumb/v6-m/nofp/libg.a(lib_a-callocr.o)
 .ARM.attributes
                0x0000000000000000       0x2c /usr/lib/gcc/arm-none-eabi/9.2.1/../../../arm-none-eabi/lib/thumb/v6-m/nofp/libg.a(lib_a-callocr.o)
 .text          0x0000000000000000        0x0 /usr/lib/gcc/arm-none-eabi/9.2.1/../../../arm-none-eabi/lib/thumb/v6-m/nofp/libg.a(lib_a-ctype_.o)
 .data          0x0000000000000000        0x0 /usr/lib/gcc/arm-none-eabi/9.2.1/../../../arm-none-eabi/lib/thumb/v6-m/nofp/libg.a(lib_a-ctype_.o)
 .bss           0x0000000000000000        0x0 /usr/lib/gcc/arm-none-eabi/9.2.1/../../../arm-none-eabi/lib/thumb/v6-m/nofp/libg.a(lib_a-ctype_.o)
 .rodata        0x0000000000000000      0x101 /usr/lib/gcc/arm-none-eabi/9.2.1/../../../arm-none-eabi/lib/thumb/v6-m/nofp/libg.a(lib_a-ctype_.o)
 .debug_info    0x0000000000000000      0xe91 /usr/lib/gcc/arm-none-eabi/9.2.1/../../../arm-none-eabi/lib/thumb/v6-m/nofp/libg.a(lib_a-ctype_.o)
 .debug_abbrev  0x0000000000000000      0x1b6 /usr/lib/gcc/arm-none-eabi/9.2.1/../../../arm-none-eabi/lib/thumb/v6-m/nofp/libg.a(lib_a-ctype_.o)
 .debug_aranges
                0x0000000000000000       0x18 /usr/lib/gcc/arm-none-eabi/9.2.1/../../../arm-none-eabi/lib/thumb/v6-m/nofp/libg.a(lib_a-ctype_.o)
 .debug_line    0x0000000000000000      0x154 /usr/lib/gcc/arm-none-eabi/9.2.1/../../../arm-none-eabi/lib/thumb/v6-m/nofp/libg.a(lib_a-ctype_.o)
 .debug_str     0x0000000000000000      0x8b5 /usr/lib/gcc/arm-none-eabi/9.2.1/../../../arm-none-eabi/lib/thumb/v6-m/nofp/libg.a(lib_a-ctype_.o)
 .comment       0x0000000000000000       0x5a /usr/lib/gcc/arm-none-eabi/9.2.1/../../../arm-none-eabi/lib/thumb/v6-m/nofp/libg.a(lib_a-ctype_.o)
 .ARM.attributes
                0x0000000000000000       0x2c /usr/lib/gcc/arm-none-eabi/9.2.1/../../../arm-none-eabi/lib/thumb/v6-m/nofp/libg.a(lib_a-ctype_.o)
 .text          0x0000000000000000       0x28 /usr/lib/gcc/arm-none-eabi/9.2.1/../../../arm-none-eabi/lib/thumb/v6-m/nofp/libg.a(lib_a-fini.o)
 .data          0x0000000000000000        0x0 /usr/lib/gcc/arm-none-eabi/9.2.1/../../../arm-none-eabi/lib/thumb/v6-m/nofp/libg.a(lib_a-fini.o)
 .bss           0x0000000000000000        0x0 /usr/lib/gcc/arm-none-eabi/9.2.1/../../../arm-none-eabi/lib/thumb/v6-m/nofp/libg.a(lib_a-fini.o)
 .debug_info    0x0000000000000000      0x102 /usr/lib/gcc/arm-none-eabi/9.2.1/../../../arm-none-eabi/lib/thumb/v6-m/nofp/libg.a(lib_a-fini.o)
 .debug_abbrev  0x0000000000000000       0xcc /usr/lib/gcc/arm-none-eabi/9.2.1/../../../arm-none-eabi/lib/thumb/v6-m/nofp/libg.a(lib_a-fini.o)
 .debug_loc     0x0000000000000000       0x46 /usr/lib/gcc/arm-none-eabi/9.2.1/../../../arm-none-eabi/lib/thumb/v6-m/nofp/libg.a(lib_a-fini.o)
 .debug_aranges
                0x0000000000000000       0x20 /usr/lib/gcc/arm-none-eabi/9.2.1/../../../arm-none-eabi/lib/thumb/v6-m/nofp/libg.a(lib_a-fini.o)
 .debug_line    0x0000000000000000       0xe9 /usr/lib/gcc/arm-none-eabi/9.2.1/../../../arm-none-eabi/lib/thumb/v6-m/nofp/libg.a(lib_a-fini.o)
 .debug_str     0x0000000000000000      0x1f7 /usr/lib/gcc/arm-none-eabi/9.2.1/../../../arm-none-eabi/lib/thumb/v6-m/nofp/libg.a(lib_a-fini.o)
 .comment       0x0000000000000000       0x5a /usr/lib/gcc/arm-none-eabi/9.2.1/../../../arm-none-eabi/lib/thumb/v6-m/nofp/libg.a(lib_a-fini.o)
 .debug_frame   0x0000000000000000       0x2c /usr/lib/gcc/arm-none-eabi/9.2.1/../../../arm-none-eabi/lib/thumb/v6-m/nofp/libg.a(lib_a-fini.o)
 .ARM.attributes
                0x0000000000000000       0x2c /usr/lib/gcc/arm-none-eabi/9.2.1/../../../arm-none-eabi/lib/thumb/v6-m/nofp/libg.a(lib_a-fini.o)
 .text          0x0000000000000000        0x0 /usr/lib/gcc/arm-none-eabi/9.2.1/../../../arm-none-eabi/lib/thumb/v6-m/nofp/libg.a(lib_a-impure.o)
 .bss           0x0000000000000000        0x0 /usr/lib/gcc/arm-none-eabi/9.2.1/../../../arm-none-eabi/lib/thumb/v6-m/nofp/libg.a(lib_a-impure.o)
 .rodata        0x0000000000000000        0x4 /usr/lib/gcc/arm-none-eabi/9.2.1/../../../arm-none-eabi/lib/thumb/v6-m/nofp/libg.a(lib_a-impure.o)
 .text          0x0000000000000000       0x44 /usr/lib/gcc/arm-none-eabi/9.2.1/../../../arm-none-eabi/lib/thumb/v6-m/nofp/libg.a(lib_a-init.o)
 .data          0x0000000000000000        0x0 /usr/lib/gcc/arm-none-eabi/9.2.1/../../../arm-none-eabi/lib/thumb/v6-m/nofp/libg.a(lib_a-init.o)
 .bss           0x0000000000000000        0x0 /usr/lib/gcc/arm-none-eabi/9.2.1/../../../arm-none-eabi/lib/thumb/v6-m/nofp/libg.a(lib_a-init.o)
 .debug_info    0x0000000000000000      0x11a /usr/lib/gcc/arm-none-eabi/9.2.1/../../../arm-none-eabi/lib/thumb/v6-m/nofp/libg.a(lib_a-init.o)
 .debug_abbrev  0x0000000000000000       0xcc /usr/lib/gcc/arm-none-eabi/9.2.1/../../../arm-none-eabi/lib/thumb/v6-m/nofp/libg.a(lib_a-init.o)
 .debug_loc     0x0000000000000000       0x98 /usr/lib/gcc/arm-none-eabi/9.2.1/../../../arm-none-eabi/lib/thumb/v6-m/nofp/libg.a(lib_a-init.o)
 .debug_aranges
                0x0000000000000000       0x20 /usr/lib/gcc/arm-none-eabi/9.2.1/../../../arm-none-eabi/lib/thumb/v6-m/nofp/libg.a(lib_a-init.o)
 .debug_line    0x0000000000000000      0x126 /usr/lib/gcc/arm-none-eabi/9.2.1/../../../arm-none-eabi/lib/thumb/v6-m/nofp/libg.a(lib_a-init.o)
 .debug_str     0x0000000000000000      0x221 /usr/lib/gcc/arm-none-eabi/9.2.1/../../../arm-none-eabi/lib/thumb/v6-m/nofp/libg.a(lib_a-init.o)
 .comment       0x0000000000000000       0x5a /usr/lib/gcc/arm-none-eabi/9.2.1/../../../arm-none-eabi/lib/thumb/v6-m/nofp/libg.a(lib_a-init.o)
 .debug_frame   0x0000000000000000       0x2c /usr/lib/gcc/arm-none-eabi/9.2.1/../../../arm-none-eabi/lib/thumb/v6-m/nofp/libg.a(lib_a-init.o)
 .ARM.attributes
                0x0000000000000000       0x2c /usr/lib/gcc/arm-none-eabi/9.2.1/../../../arm-none-eabi/lib/thumb/v6-m/nofp/libg.a(lib_a-init.o)
 .text          0x0000000000000000       0x38 /usr/lib/gcc/arm-none-eabi/9.2.1/../../../arm-none-eabi/lib/thumb/v6-m/nofp/libg.a(lib_a-itoa.o)
 .data          0x0000000000000000        0x0 /usr/lib/gcc/arm-none-eabi/9.2.1/../../../arm-none-eabi/lib/thumb/v6-m/nofp/libg.a(lib_a-itoa.o)
 .bss           0x0000000000000000        0x0 /usr/lib/gcc/arm-none-eabi/9.2.1/../../../arm-none-eabi/lib/thumb/v6-m/nofp/libg.a(lib_a-itoa.o)
 .debug_info    0x0000000000000000      0xa1e /usr/lib/gcc/arm-none-eabi/9.2.1/../../../arm-none-eabi/lib/thumb/v6-m/nofp/libg.a(lib_a-itoa.o)
 .debug_abbrev  0x0000000000000000      0x258 /usr/lib/gcc/arm-none-eabi/9.2.1/../../../arm-none-eabi/lib/thumb/v6-m/nofp/libg.a(lib_a-itoa.o)
 .debug_loc     0x0000000000000000      0x1bb /usr/lib/gcc/arm-none-eabi/9.2.1/../../../arm-none-eabi/lib/thumb/v6-m/nofp/libg.a(lib_a-itoa.o)
 .debug_aranges
                0x0000000000000000       0x20 /usr/lib/gcc/arm-none-eabi/9.2.1/../../../arm-none-eabi/lib/thumb/v6-m/nofp/libg.a(lib_a-itoa.o)
 .debug_line    0x0000000000000000      0x1a9 /usr/lib/gcc/arm-none-eabi/9.2.1/../../../arm-none-eabi/lib/thumb/v6-m/nofp/libg.a(lib_a-itoa.o)
 .debug_str     0x0000000000000000      0x5c0 /usr/lib/gcc/arm-none-eabi/9.2.1/../../../arm-none-eabi/lib/thumb/v6-m/nofp/libg.a(lib_a-itoa.o)
 .comment       0x0000000000000000       0x5a /usr/lib/gcc/arm-none-eabi/9.2.1/../../../arm-none-eabi/lib/thumb/v6-m/nofp/libg.a(lib_a-itoa.o)
 .debug_frame   0x0000000000000000       0x40 /usr/lib/gcc/arm-none-eabi/9.2.1/../../../arm-none-eabi/lib/thumb/v6-m/nofp/libg.a(lib_a-itoa.o)
 .ARM.attributes
                0x0000000000000000       0x2c /usr/lib/gcc/arm-none-eabi/9.2.1/../../../arm-none-eabi/lib/thumb/v6-m/nofp/libg.a(lib_a-itoa.o)
 .data          0x0000000000000000        0x0 /usr/lib/gcc/arm-none-eabi/9.2.1/../../../arm-none-eabi/lib/thumb/v6-m/nofp/libg.a(lib_a-malloc.o)
 .bss           0x0000000000000000        0x0 /usr/lib/gcc/arm-none-eabi/9.2.1/../../../arm-none-eabi/lib/thumb/v6-m/nofp/libg.a(lib_a-malloc.o)
 .data          0x0000000000000000        0x0 /usr/lib/gcc/arm-none-eabi/9.2.1/../../../arm-none-eabi/lib/thumb/v6-m/nofp/libg.a(lib_a-mlock.o)
 .bss           0x0000000000000000        0x0 /usr/lib/gcc/arm-none-eabi/9.2.1/../../../arm-none-eabi/lib/thumb/v6-m/nofp/libg.a(lib_a-mlock.o)
 .data          0x0000000000000000        0x0 /usr/lib/gcc/arm-none-eabi/9.2.1/../../../arm-none-eabi/lib/thumb/v6-m/nofp/libg.a(lib_a-sbrkr.o)
 .bss           0x0000000000000000        0x0 /usr/lib/gcc/arm-none-eabi/9.2.1/../../../arm-none-eabi/lib/thumb/v6-m/nofp/libg.a(lib_a-sbrkr.o)
 .data          0x0000000000000000        0x0 /usr/lib/gcc/arm-none-eabi/9.2.1/../../../arm-none-eabi/lib/thumb/v6-m/nofp/libg.a(lib_a-strlen-stub.o)
 .bss           0x0000000000000000        0x0 /usr/lib/gcc/arm-none-eabi/9.2.1/../../../arm-none-eabi/lib/thumb/v6-m/nofp/libg.a(lib_a-strlen-stub.o)
 .text          0x0000000000000000       0x88 /usr/lib/gcc/arm-none-eabi/9.2.1/../../../arm-none-eabi/lib/thumb/v6-m/nofp/libg.a(lib_a-utoa.o)
 .data          0x0000000000000000        0x0 /usr/lib/gcc/arm-none-eabi/9.2.1/../../../arm-none-eabi/lib/thumb/v6-m/nofp/libg.a(lib_a-utoa.o)
 .bss           0x0000000000000000        0x0 /usr/lib/gcc/arm-none-eabi/9.2.1/../../../arm-none-eabi/lib/thumb/v6-m/nofp/libg.a(lib_a-utoa.o)
 .rodata.str1.4
                0x0000000000000000       0x25 /usr/lib/gcc/arm-none-eabi/9.2.1/../../../arm-none-eabi/lib/thumb/v6-m/nofp/libg.a(lib_a-utoa.o)
 .debug_info    0x0000000000000000      0xa52 /usr/lib/gcc/arm-none-eabi/9.2.1/../../../arm-none-eabi/lib/thumb/v6-m/nofp/libg.a(lib_a-utoa.o)
 .debug_abbrev  0x0000000000000000      0x269 /usr/lib/gcc/arm-none-eabi/9.2.1/../../../arm-none-eabi/lib/thumb/v6-m/nofp/libg.a(lib_a-utoa.o)
 .debug_loc     0x0000000000000000      0x1a5 /usr/lib/gcc/arm-none-eabi/9.2.1/../../../arm-none-eabi/lib/thumb/v6-m/nofp/libg.a(lib_a-utoa.o)
 .debug_aranges
                0x0000000000000000       0x20 /usr/lib/gcc/arm-none-eabi/9.2.1/../../../arm-none-eabi/lib/thumb/v6-m/nofp/libg.a(lib_a-utoa.o)
 .debug_line    0x0000000000000000      0x24e /usr/lib/gcc/arm-none-eabi/9.2.1/../../../arm-none-eabi/lib/thumb/v6-m/nofp/libg.a(lib_a-utoa.o)
 .debug_str     0x0000000000000000      0x5c3 /usr/lib/gcc/arm-none-eabi/9.2.1/../../../arm-none-eabi/lib/thumb/v6-m/nofp/libg.a(lib_a-utoa.o)
 .comment       0x0000000000000000       0x5a /usr/lib/gcc/arm-none-eabi/9.2.1/../../../arm-none-eabi/lib/thumb/v6-m/nofp/libg.a(lib_a-utoa.o)
 .debug_frame   0x0000000000000000       0x50 /usr/lib/gcc/arm-none-eabi/9.2.1/../../../arm-none-eabi/lib/thumb/v6-m/nofp/libg.a(lib_a-utoa.o)
 .ARM.attributes
                0x0000000000000000       0x2c /usr/lib/gcc/arm-none-eabi/9.2.1/../../../arm-none-eabi/lib/thumb/v6-m/nofp/libg.a(lib_a-utoa.o)
 .text          0x0000000000000000       0x88 /usr/lib/gcc/arm-none-eabi/9.2.1/../../../arm-none-eabi/lib/thumb/v6-m/nofp/libg.a(lib_a-__atexit.o)
 .data          0x0000000000000000        0x0 /usr/lib/gcc/arm-none-eabi/9.2.1/../../../arm-none-eabi/lib/thumb/v6-m/nofp/libg.a(lib_a-__atexit.o)
 .bss           0x0000000000000000        0x0 /usr/lib/gcc/arm-none-eabi/9.2.1/../../../arm-none-eabi/lib/thumb/v6-m/nofp/libg.a(lib_a-__atexit.o)
 .debug_info    0x0000000000000000      0x9d5 /usr/lib/gcc/arm-none-eabi/9.2.1/../../../arm-none-eabi/lib/thumb/v6-m/nofp/libg.a(lib_a-__atexit.o)
 .debug_abbrev  0x0000000000000000      0x252 /usr/lib/gcc/arm-none-eabi/9.2.1/../../../arm-none-eabi/lib/thumb/v6-m/nofp/libg.a(lib_a-__atexit.o)
 .debug_loc     0x0000000000000000      0x164 /usr/lib/gcc/arm-none-eabi/9.2.1/../../../arm-none-eabi/lib/thumb/v6-m/nofp/libg.a(lib_a-__atexit.o)
 .debug_aranges
                0x0000000000000000       0x20 /usr/lib/gcc/arm-none-eabi/9.2.1/../../../arm-none-eabi/lib/thumb/v6-m/nofp/libg.a(lib_a-__atexit.o)
 .debug_line    0x0000000000000000      0x1f9 /usr/lib/gcc/arm-none-eabi/9.2.1/../../../arm-none-eabi/lib/thumb/v6-m/nofp/libg.a(lib_a-__atexit.o)
 .debug_str     0x0000000000000000      0x606 /usr/lib/gcc/arm-none-eabi/9.2.1/../../../arm-none-eabi/lib/thumb/v6-m/nofp/libg.a(lib_a-__atexit.o)
 .comment       0x0000000000000000       0x5a /usr/lib/gcc/arm-none-eabi/9.2.1/../../../arm-none-eabi/lib/thumb/v6-m/nofp/libg.a(lib_a-__atexit.o)
 .debug_frame   0x0000000000000000       0x38 /usr/lib/gcc/arm-none-eabi/9.2.1/../../../arm-none-eabi/lib/thumb/v6-m/nofp/libg.a(lib_a-__atexit.o)
 .ARM.attributes
                0x0000000000000000       0x2c /usr/lib/gcc/arm-none-eabi/9.2.1/../../../arm-none-eabi/lib/thumb/v6-m/nofp/libg.a(lib_a-__atexit.o)
 .data          0x0000000000000000        0x0 /usr/lib/gcc/arm-none-eabi/9.2.1/../../../arm-none-eabi/lib/thumb/v6-m/nofp/libg.a(lib_a-freer.o)
 .bss           0x0000000000000000        0x0 /usr/lib/gcc/arm-none-eabi/9.2.1/../../../arm-none-eabi/lib/thumb/v6-m/nofp/libg.a(lib_a-freer.o)
 .text          0x0000000000000000       0xb0 /usr/lib/gcc/arm-none-eabi/9.2.1/../../../arm-none-eabi/lib/thumb/v6-m/nofp/libg.a(lib_a-reent.o)
 .data          0x0000000000000000        0x0 /usr/lib/gcc/arm-none-eabi/9.2.1/../../../arm-none-eabi/lib/thumb/v6-m/nofp/libg.a(lib_a-reent.o)
 .bss           0x0000000000000000        0x0 /usr/lib/gcc/arm-none-eabi/9.2.1/../../../arm-none-eabi/lib/thumb/v6-m/nofp/libg.a(lib_a-reent.o)
 .text          0x0000000000000000        0x0 /usr/lib/gcc/arm-none-eabi/9.2.1/thumb/v6-m/nofp/crtend.o
 .data          0x0000000000000000        0x0 /usr/lib/gcc/arm-none-eabi/9.2.1/thumb/v6-m/nofp/crtend.o
 .bss           0x0000000000000000        0x0 /usr/lib/gcc/arm-none-eabi/9.2.1/thumb/v6-m/nofp/crtend.o
 .eh_frame      0x0000000000000000        0x4 /usr/lib/gcc/arm-none-eabi/9.2.1/thumb/v6-m/nofp/crtend.o
 .text          0x0000000000000000        0x0 /usr/lib/gcc/arm-none-eabi/9.2.1/thumb/v6-m/nofp/crtn.o
 .data          0x0000000000000000        0x0 /usr/lib/gcc/arm-none-eabi/9.2.1/thumb/v6-m/nofp/crtn.o
 .bss           0x0000000000000000        0x0 /usr/lib/gcc/arm-none-eabi/9.2.1/thumb/v6-m/nofp/crtn.o
 .init          0x0000000000000000        0x8 /usr/lib/gcc/arm-none-eabi/9.2.1/thumb/v6-m/nofp/crtn.o
 .fini          0x0000000000000000        0x8 /usr/lib/gcc/arm-none-eabi/9.2.1/thumb/v6-m/nofp/crtn.o
 .ARM.attributes
                0x0000000000000000       0x1e /usr/lib/gcc/arm-none-eabi/9.2.1/thumb/v6-m/nofp/crtn.o

Memory Configuration

Name             Origin             Length             Attributes
FLASH            0x0000000010000000 0x0000000000200000 xr
RAM              0x0000000020000000 0x0000000000040000 xrw
SCRATCH_X        0x0000000020040000 0x0000000000001000 xrw
SCRATCH_Y        0x0000000020041000 0x0000000000001000 xrw
*default*        0x0000000000000000 0xffffffffffffffff

Linker script and memory map

LOAD /usr/lib/gcc/arm-none-eabi/9.2.1/thumb/v6-m/nofp/crti.o
LOAD /usr/lib/gcc/arm-none-eabi/9.2.1/thumb/v6-m/nofp/crtbegin.o
LOAD /usr/lib/gcc/arm-none-eabi/9.2.1/../../../arm-none-eabi/lib/thumb/v6-m/nofp/crt0.o

.flash_begin    0x0000000010000000        0x0
                0x0000000010000000                __flash_binary_start = .

.boot2          0x0000000010000000      0x100
                0x0000000010000000                __boot2_start__ = .
 *(.boot2)
 .boot2         0x0000000010000000      0x100 /tmp/ccN530LL.o
                0x0000000010000100                __boot2_end__ = .
                0x0000000000000001                ASSERT (((__boot2_end__ - __boot2_start__) == 0x100), ERROR: Pico second stage bootloader must be 256 bytes in size)

.text           0x0000000010000100     0x98f0
                0x0000000010000100                __logical_binary_start = .
 *(.vectors)
 .vectors       0x0000000010000100       0xd4 CMakeFiles/main.dir/home/iwo/pico/pico-sdk/src/rp2_common/pico_standard_link/crt0.S.obj
                0x0000000010000100                __vectors
                0x0000000010000100                __VECTOR_TABLE
                0x00000000100001c0                isr_invalid
                0x00000000100001c0                __default_isrs_start
                0x00000000100001c2                isr_nmi
                0x00000000100001c4                isr_hardfault
                0x00000000100001c6                isr_svcall
                0x00000000100001c8                isr_pendsv
                0x00000000100001ca                isr_systick
                0x00000000100001cc                isr_irq30
                0x00000000100001cc                __unhandled_user_irq
                0x00000000100001cc                isr_irq13
                0x00000000100001cc                isr_irq27
                0x00000000100001cc                isr_irq31
                0x00000000100001cc                isr_irq5
                0x00000000100001cc                isr_irq11
                0x00000000100001cc                isr_irq23
                0x00000000100001cc                isr_irq18
                0x00000000100001cc                isr_irq28
                0x00000000100001cc                isr_irq19
                0x00000000100001cc                isr_irq0
                0x00000000100001cc                isr_irq6
                0x00000000100001cc                isr_irq22
                0x00000000100001cc                isr_irq17
                0x00000000100001cc                isr_irq14
                0x00000000100001cc                isr_irq2
                0x00000000100001cc                isr_irq10
                0x00000000100001cc                isr_irq8
                0x00000000100001cc                isr_irq24
                0x00000000100001cc                isr_irq1
                0x00000000100001cc                isr_irq7
                0x00000000100001cc                isr_irq21
                0x00000000100001cc                isr_irq20
                0x00000000100001cc                isr_irq15
                0x00000000100001cc                isr_irq25
                0x00000000100001cc                isr_irq4
                0x00000000100001cc                isr_irq16
                0x00000000100001cc                isr_irq29
                0x00000000100001cc                isr_irq26
                0x00000000100001cc                __default_isrs_end
                0x00000000100001cc                isr_irq3
                0x00000000100001cc                isr_irq12
                0x00000000100001cc                isr_irq9
                0x00000000100001d2                unhandled_user_irq_num_in_r0
 *(.binary_info_header)
 .binary_info_header
                0x00000000100001d4       0x14 CMakeFiles/main.dir/home/iwo/pico/pico-sdk/src/rp2_common/pico_standard_link/crt0.S.obj
                0x00000000100001e8                __binary_info_header_end = .
 *(.reset)
 .reset         0x00000000100001e8       0xa8 CMakeFiles/main.dir/home/iwo/pico/pico-sdk/src/rp2_common/pico_standard_link/crt0.S.obj
                0x00000000100001e8                _entry_point
                0x0000000010000266                __get_current_exception
 .reset         0x0000000010000290       0x30 CMakeFiles/main.dir/home/iwo/pico/pico-sdk/src/rp2_common/pico_standard_link/binary_info.c.obj
 *(.init)
 .init          0x00000000100002c0        0x4 /usr/lib/gcc/arm-none-eabi/9.2.1/thumb/v6-m/nofp/crti.o
                0x00000000100002c0                _init
 *(EXCLUDE_FILE(*libm.a: *libc.a:*lib_a-mem*.o *libgcc.a:) .text*)
 .text          0x00000000100002c4       0x98 /usr/lib/gcc/arm-none-eabi/9.2.1/thumb/v6-m/nofp/crtbegin.o
 .text.main     0x000000001000035c       0x24 CMakeFiles/main.dir/main.c.obj
                0x000000001000035c                main
 .text.gpio_set_function
                0x0000000010000380       0x30 CMakeFiles/main.dir/home/iwo/pico/pico-sdk/src/rp2_common/hardware_gpio/gpio.c.obj
                0x0000000010000380                gpio_set_function
 .text.gpio_set_pulls
                0x00000000100003b0       0x34 CMakeFiles/main.dir/home/iwo/pico/pico-sdk/src/rp2_common/hardware_gpio/gpio.c.obj
                0x00000000100003b0                gpio_set_pulls
 .text.gpio_init
                0x00000000100003e4       0x16 CMakeFiles/main.dir/home/iwo/pico/pico-sdk/src/rp2_common/hardware_gpio/gpio.c.obj
                0x00000000100003e4                gpio_init
 *fill*         0x00000000100003fa        0x2 
 .text.hw_claim_lock
                0x00000000100003fc       0x18 CMakeFiles/main.dir/home/iwo/pico/pico-sdk/src/rp2_common/hardware_claim/claim.c.obj
                0x00000000100003fc                hw_claim_lock
 .text.hw_claim_unlock
                0x0000000010000414       0x14 CMakeFiles/main.dir/home/iwo/pico/pico-sdk/src/rp2_common/hardware_claim/claim.c.obj
                0x0000000010000414                hw_claim_unlock
 .text.hw_claim_or_assert
                0x0000000010000428       0x32 CMakeFiles/main.dir/home/iwo/pico/pico-sdk/src/rp2_common/hardware_claim/claim.c.obj
                0x0000000010000428                hw_claim_or_assert
 .text.hw_claim_unused_from_range
                0x000000001000045a       0x50 CMakeFiles/main.dir/home/iwo/pico/pico-sdk/src/rp2_common/hardware_claim/claim.c.obj
                0x000000001000045a                hw_claim_unused_from_range
 *fill*         0x00000000100004aa        0x2 
 .text.running_on_fpga
                0x00000000100004ac       0x14 CMakeFiles/main.dir/home/iwo/pico/pico-sdk/src/rp2_common/pico_platform/platform.c.obj
                0x00000000100004ac                running_on_fpga
 .text.spin_locks_reset
                0x00000000100004c0       0x20 CMakeFiles/main.dir/home/iwo/pico/pico-sdk/src/rp2_common/hardware_sync/sync.c.obj
                0x00000000100004c0                spin_locks_reset
 .text.next_striped_spin_lock_num
                0x00000000100004e0       0x1c CMakeFiles/main.dir/home/iwo/pico/pico-sdk/src/rp2_common/hardware_sync/sync.c.obj
                0x00000000100004e0                next_striped_spin_lock_num
 .text.spin_lock_claim_unused
                0x00000000100004fc       0x20 CMakeFiles/main.dir/home/iwo/pico/pico-sdk/src/rp2_common/hardware_sync/sync.c.obj
                0x00000000100004fc                spin_lock_claim_unused
 .text.alarm_pool_post_alloc_init
                0x000000001000051c       0x40 CMakeFiles/main.dir/home/iwo/pico/pico-sdk/src/common/pico_time/time.c.obj
 .text.sleep_until_callback
                0x000000001000055c       0x30 CMakeFiles/main.dir/home/iwo/pico/pico-sdk/src/common/pico_time/time.c.obj
 .text.timer_pool_entry_comparator
                0x000000001000058c       0x7c CMakeFiles/main.dir/home/iwo/pico/pico-sdk/src/common/pico_time/time.c.obj
                0x000000001000058c                timer_pool_entry_comparator
 .text.ph_add_child_node
                0x0000000010000608       0xa4 CMakeFiles/main.dir/home/iwo/pico/pico-sdk/src/common/pico_time/time.c.obj
 .text.ph_merge_nodes
                0x00000000100006ac       0x3e CMakeFiles/main.dir/home/iwo/pico/pico-sdk/src/common/pico_time/time.c.obj
 *fill*         0x00000000100006ea        0x2 
 .text.add_alarm_under_lock
                0x00000000100006ec      0x174 CMakeFiles/main.dir/home/iwo/pico/pico-sdk/src/common/pico_time/time.c.obj
 .text.alarm_pool_alarm_callback
                0x0000000010000860      0x32c CMakeFiles/main.dir/home/iwo/pico/pico-sdk/src/common/pico_time/time.c.obj
 .text.alarm_pool_init_default
                0x0000000010000b8c       0x38 CMakeFiles/main.dir/home/iwo/pico/pico-sdk/src/common/pico_time/time.c.obj
                0x0000000010000b8c                alarm_pool_init_default
 .text.alarm_pool_get_default
                0x0000000010000bc4       0x2c CMakeFiles/main.dir/home/iwo/pico/pico-sdk/src/common/pico_time/time.c.obj
                0x0000000010000bc4                alarm_pool_get_default
 .text.alarm_pool_add_alarm_at
                0x0000000010000bf0      0x170 CMakeFiles/main.dir/home/iwo/pico/pico-sdk/src/common/pico_time/time.c.obj
                0x0000000010000bf0                alarm_pool_add_alarm_at
 .text.alarm_pool_cancel_alarm
                0x0000000010000d60       0xf0 CMakeFiles/main.dir/home/iwo/pico/pico-sdk/src/common/pico_time/time.c.obj
                0x0000000010000d60                alarm_pool_cancel_alarm
 .text.sleep_until
                0x0000000010000e50       0xfc CMakeFiles/main.dir/home/iwo/pico/pico-sdk/src/common/pico_time/time.c.obj
                0x0000000010000e50                sleep_until
 .text.sleep_us
                0x0000000010000f4c       0x58 CMakeFiles/main.dir/home/iwo/pico/pico-sdk/src/common/pico_time/time.c.obj
                0x0000000010000f4c                sleep_us
 .text.sleep_ms
                0x0000000010000fa4       0x14 CMakeFiles/main.dir/home/iwo/pico/pico-sdk/src/common/pico_time/time.c.obj
                0x0000000010000fa4                sleep_ms
 .text.best_effort_wfe_or_timeout
                0x0000000010000fb8       0x80 CMakeFiles/main.dir/home/iwo/pico/pico-sdk/src/common/pico_time/time.c.obj
                0x0000000010000fb8                best_effort_wfe_or_timeout
 .text.hardware_alarm_irq_handler
                0x0000000010001038       0x8c CMakeFiles/main.dir/home/iwo/pico/pico-sdk/src/rp2_common/hardware_timer/timer.c.obj
 .text.hardware_alarm_claim
                0x00000000100010c4       0x18 CMakeFiles/main.dir/home/iwo/pico/pico-sdk/src/rp2_common/hardware_timer/timer.c.obj
                0x00000000100010c4                hardware_alarm_claim
 .text.time_us_64
                0x00000000100010dc       0x18 CMakeFiles/main.dir/home/iwo/pico/pico-sdk/src/rp2_common/hardware_timer/timer.c.obj
                0x00000000100010dc                time_us_64
 .text.busy_wait_until
                0x00000000100010f4       0x24 CMakeFiles/main.dir/home/iwo/pico/pico-sdk/src/rp2_common/hardware_timer/timer.c.obj
                0x00000000100010f4                busy_wait_until
 .text.hardware_alarm_set_callback
                0x0000000010001118       0x90 CMakeFiles/main.dir/home/iwo/pico/pico-sdk/src/rp2_common/hardware_timer/timer.c.obj
                0x0000000010001118                hardware_alarm_set_callback
 .text.hardware_alarm_set_target
                0x00000000100011a8       0xe8 CMakeFiles/main.dir/home/iwo/pico/pico-sdk/src/rp2_common/hardware_timer/timer.c.obj
                0x00000000100011a8                hardware_alarm_set_target
 .text.hardware_alarm_cancel
                0x0000000010001290       0x40 CMakeFiles/main.dir/home/iwo/pico/pico-sdk/src/rp2_common/hardware_timer/timer.c.obj
                0x0000000010001290                hardware_alarm_cancel
 .text.lock_init
                0x00000000100012d0       0x10 CMakeFiles/main.dir/home/iwo/pico/pico-sdk/src/common/pico_sync/lock_core.c.obj
                0x00000000100012d0                lock_init
 .text.mutex_init
                0x00000000100012e0       0x1a CMakeFiles/main.dir/home/iwo/pico/pico-sdk/src/common/pico_sync/mutex.c.obj
                0x00000000100012e0                mutex_init
 .text.recursive_mutex_init
                0x00000000100012fa       0x1e CMakeFiles/main.dir/home/iwo/pico/pico-sdk/src/common/pico_sync/mutex.c.obj
                0x00000000100012fa                recursive_mutex_init
 .text.critical_section_init_with_lock_num
                0x0000000010001318       0x14 CMakeFiles/main.dir/home/iwo/pico/pico-sdk/src/common/pico_sync/critical_section.c.obj
                0x0000000010001318                critical_section_init_with_lock_num
 .text.critical_section_init
                0x000000001000132c       0x14 CMakeFiles/main.dir/home/iwo/pico/pico-sdk/src/common/pico_sync/critical_section.c.obj
                0x000000001000132c                critical_section_init
 .text.ph_add_child_node
                0x0000000010001340       0xa4 CMakeFiles/main.dir/home/iwo/pico/pico-sdk/src/common/pico_util/pheap.c.obj
 .text.ph_merge_nodes
                0x00000000100013e4       0x3e CMakeFiles/main.dir/home/iwo/pico/pico-sdk/src/common/pico_util/pheap.c.obj
 *fill*         0x0000000010001422        0x2 
 .text.ph_clear
                0x0000000010001424       0x70 CMakeFiles/main.dir/home/iwo/pico/pico-sdk/src/common/pico_util/pheap.c.obj
                0x0000000010001424                ph_clear
 .text.ph_post_alloc_init
                0x0000000010001494        0xe CMakeFiles/main.dir/home/iwo/pico/pico-sdk/src/common/pico_util/pheap.c.obj
                0x0000000010001494                ph_post_alloc_init
 *fill*         0x00000000100014a2        0x2 
 .text.ph_merge_two_pass
                0x00000000100014a4       0xa8 CMakeFiles/main.dir/home/iwo/pico/pico-sdk/src/common/pico_util/pheap.c.obj
                0x00000000100014a4                ph_merge_two_pass
 .text.ph_remove_any_head
                0x000000001000154c      0x108 CMakeFiles/main.dir/home/iwo/pico/pico-sdk/src/common/pico_util/pheap.c.obj
 .text.ph_remove_head
                0x0000000010001654       0x14 CMakeFiles/main.dir/home/iwo/pico/pico-sdk/src/common/pico_util/pheap.c.obj
                0x0000000010001654                ph_remove_head
 .text.ph_remove_and_free_node
                0x0000000010001668       0xf8 CMakeFiles/main.dir/home/iwo/pico/pico-sdk/src/common/pico_util/pheap.c.obj
                0x0000000010001668                ph_remove_and_free_node
 .text._exit    0x0000000010001760        0x4 CMakeFiles/main.dir/home/iwo/pico/pico-sdk/src/rp2_common/pico_runtime/runtime.c.obj
                0x0000000010001760                _exit
 .text._sbrk    0x0000000010001764       0x38 CMakeFiles/main.dir/home/iwo/pico/pico-sdk/src/rp2_common/pico_runtime/runtime.c.obj
                0x0000000010001764                _sbrk
 .text.exit     0x000000001000179c        0x6 CMakeFiles/main.dir/home/iwo/pico/pico-sdk/src/rp2_common/pico_runtime/runtime.c.obj
                0x000000001000179c                exit
 *fill*         0x00000000100017a2        0x2 
 .text.__assert_func
                0x00000000100017a4       0x3c CMakeFiles/main.dir/home/iwo/pico/pico-sdk/src/rp2_common/pico_runtime/runtime.c.obj
                0x00000000100017a4                __assert_func
 .text.runtime_init
                0x00000000100017e0       0xf8 CMakeFiles/main.dir/home/iwo/pico/pico-sdk/src/rp2_common/pico_runtime/runtime.c.obj
                0x00000000100017e0                runtime_init
 .text.panic    0x00000000100018d8       0x30 CMakeFiles/main.dir/home/iwo/pico/pico-sdk/src/rp2_common/pico_runtime/runtime.c.obj
                0x00000000100018d8                panic
 .text.clock_configure
                0x0000000010001908      0x104 CMakeFiles/main.dir/home/iwo/pico/pico-sdk/src/rp2_common/hardware_clocks/clocks.c.obj
                0x0000000010001908                clock_configure
 .text.clocks_init
                0x0000000010001a0c      0x100 CMakeFiles/main.dir/home/iwo/pico/pico-sdk/src/rp2_common/hardware_clocks/clocks.c.obj
                0x0000000010001a0c                clocks_init
 .text.clock_get_hz
                0x0000000010001b0c        0xc CMakeFiles/main.dir/home/iwo/pico/pico-sdk/src/rp2_common/hardware_clocks/clocks.c.obj
                0x0000000010001b0c                clock_get_hz
 .text.set_raw_irq_handler_and_unlock
                0x0000000010001b18       0x28 CMakeFiles/main.dir/home/iwo/pico/pico-sdk/src/rp2_common/hardware_irq/irq.c.obj
 .text.make_branch
                0x0000000010001b40       0x34 CMakeFiles/main.dir/home/iwo/pico/pico-sdk/src/rp2_common/hardware_irq/irq.c.obj
 .text.insert_branch_and_link
                0x0000000010001b74       0x40 CMakeFiles/main.dir/home/iwo/pico/pico-sdk/src/rp2_common/hardware_irq/irq.c.obj
 .text.irq_is_enabled
                0x0000000010001bb4       0x18 CMakeFiles/main.dir/home/iwo/pico/pico-sdk/src/rp2_common/hardware_irq/irq.c.obj
                0x0000000010001bb4                irq_is_enabled
 .text.irq_set_mask_enabled
                0x0000000010001bcc       0x20 CMakeFiles/main.dir/home/iwo/pico/pico-sdk/src/rp2_common/hardware_irq/irq.c.obj
                0x0000000010001bcc                irq_set_mask_enabled
 .text.irq_set_enabled
                0x0000000010001bec        0xe CMakeFiles/main.dir/home/iwo/pico/pico-sdk/src/rp2_common/hardware_irq/irq.c.obj
                0x0000000010001bec                irq_set_enabled
 *fill*         0x0000000010001bfa        0x2 
 .text.irq_set_pending
                0x0000000010001bfc       0x10 CMakeFiles/main.dir/home/iwo/pico/pico-sdk/src/rp2_common/hardware_irq/irq.c.obj
                0x0000000010001bfc                irq_set_pending
 .text.irq_get_vtable_handler
                0x0000000010001c0c       0x10 CMakeFiles/main.dir/home/iwo/pico/pico-sdk/src/rp2_common/hardware_irq/irq.c.obj
                0x0000000010001c0c                irq_get_vtable_handler
 .text.irq_set_exclusive_handler
                0x0000000010001c1c       0x54 CMakeFiles/main.dir/home/iwo/pico/pico-sdk/src/rp2_common/hardware_irq/irq.c.obj
                0x0000000010001c1c                irq_set_exclusive_handler
 .text.irq_remove_handler
                0x0000000010001c70      0x1ac CMakeFiles/main.dir/home/iwo/pico/pico-sdk/src/rp2_common/hardware_irq/irq.c.obj
                0x0000000010001c70                irq_remove_handler
 .text.irq_add_tail_to_free_list
                0x0000000010001e1c       0xf0 CMakeFiles/main.dir/home/iwo/pico/pico-sdk/src/rp2_common/hardware_irq/irq.c.obj
                0x0000000010001e1c                irq_add_tail_to_free_list
 .text.irq_init_priorities
                0x0000000010001f0c       0x1c CMakeFiles/main.dir/home/iwo/pico/pico-sdk/src/rp2_common/hardware_irq/irq.c.obj
                0x0000000010001f0c                irq_init_priorities
 .text.pll_init
                0x0000000010001f28      0x118 CMakeFiles/main.dir/home/iwo/pico/pico-sdk/src/rp2_common/hardware_pll/pll.c.obj
                0x0000000010001f28                pll_init
 .text.watchdog_start_tick
                0x0000000010002040       0x10 CMakeFiles/main.dir/home/iwo/pico/pico-sdk/src/rp2_common/hardware_watchdog/watchdog.c.obj
                0x0000000010002040                watchdog_start_tick
 .text.watchdog_update
                0x0000000010002050       0x14 CMakeFiles/main.dir/home/iwo/pico/pico-sdk/src/rp2_common/hardware_watchdog/watchdog.c.obj
                0x0000000010002050                watchdog_update
 .text._watchdog_enable
                0x0000000010002064       0x78 CMakeFiles/main.dir/home/iwo/pico/pico-sdk/src/rp2_common/hardware_watchdog/watchdog.c.obj
                0x0000000010002064                _watchdog_enable
 .text.watchdog_reboot
                0x00000000100020dc       0x48 CMakeFiles/main.dir/home/iwo/pico/pico-sdk/src/rp2_common/hardware_watchdog/watchdog.c.obj
                0x00000000100020dc                watchdog_reboot
 .text.xosc_init
                0x0000000010002124       0x28 CMakeFiles/main.dir/home/iwo/pico/pico-sdk/src/rp2_common/hardware_xosc/xosc.c.obj
                0x0000000010002124                xosc_init
 .text._out_null
                0x000000001000214c        0x2 CMakeFiles/main.dir/home/iwo/pico/pico-sdk/src/rp2_common/pico_printf/printf.c.obj
 .text._out_fct
                0x000000001000214e        0xe CMakeFiles/main.dir/home/iwo/pico/pico-sdk/src/rp2_common/pico_printf/printf.c.obj
 .text._atoi    0x000000001000215c       0x24 CMakeFiles/main.dir/home/iwo/pico/pico-sdk/src/rp2_common/pico_printf/printf.c.obj
 .text._out_rev
                0x0000000010002180       0xae CMakeFiles/main.dir/home/iwo/pico/pico-sdk/src/rp2_common/pico_printf/printf.c.obj
 .text._ntoa_format
                0x000000001000222e      0x110 CMakeFiles/main.dir/home/iwo/pico/pico-sdk/src/rp2_common/pico_printf/printf.c.obj
 .text._ntoa_long
                0x000000001000233e       0xbc CMakeFiles/main.dir/home/iwo/pico/pico-sdk/src/rp2_common/pico_printf/printf.c.obj
 .text._ntoa_long_long
                0x00000000100023fa       0xe2 CMakeFiles/main.dir/home/iwo/pico/pico-sdk/src/rp2_common/pico_printf/printf.c.obj
 .text._etoa    0x00000000100024dc      0x40c CMakeFiles/main.dir/home/iwo/pico/pico-sdk/src/rp2_common/pico_printf/printf.c.obj
 .text._ftoa    0x00000000100028e8      0x354 CMakeFiles/main.dir/home/iwo/pico/pico-sdk/src/rp2_common/pico_printf/printf.c.obj
 .text._vsnprintf
                0x0000000010002c3c      0x628 CMakeFiles/main.dir/home/iwo/pico/pico-sdk/src/rp2_common/pico_printf/printf.c.obj
 .text.vfctprintf
                0x0000000010003264       0x20 CMakeFiles/main.dir/home/iwo/pico/pico-sdk/src/rp2_common/pico_printf/printf.c.obj
                0x0000000010003264                vfctprintf
 .text          0x0000000010003284       0x10 CMakeFiles/main.dir/home/iwo/pico/pico-sdk/src/rp2_common/pico_bit_ops/bit_ops_aeabi.S.obj
 .text.rom_func_lookup
                0x0000000010003294       0x10 CMakeFiles/main.dir/home/iwo/pico/pico-sdk/src/rp2_common/pico_bootrom/bootrom.c.obj
                0x0000000010003294                rom_func_lookup
 .text.rom_data_lookup
                0x00000000100032a4       0x10 CMakeFiles/main.dir/home/iwo/pico/pico-sdk/src/rp2_common/pico_bootrom/bootrom.c.obj
                0x00000000100032a4                rom_data_lookup
 .text.rom_funcs_lookup
                0x00000000100032b4       0x36 CMakeFiles/main.dir/home/iwo/pico/pico-sdk/src/rp2_common/pico_bootrom/bootrom.c.obj
                0x00000000100032b4                rom_funcs_lookup
 *fill*         0x00000000100032ea        0x2 
 .text.__wrap___aeabi_idiv
                0x00000000100032ec       0x50 CMakeFiles/main.dir/home/iwo/pico/pico-sdk/src/rp2_common/pico_divider/divider.S.obj
                0x00000000100032ec                __wrap___aeabi_idivmod
                0x00000000100032ec                divmod_s32s32
                0x00000000100032ec                div_s32s32
                0x00000000100032ec                __wrap___aeabi_idiv
                0x00000000100032f4                divmod_s32s32_unsafe
                0x0000000010003320                divmod_s32s32_savestate
 .text.__wrap___aeabi_uidiv
                0x000000001000333c       0x4c CMakeFiles/main.dir/home/iwo/pico/pico-sdk/src/rp2_common/pico_divider/divider.S.obj
                0x000000001000333c                __wrap___aeabi_uidiv
                0x000000001000333c                __wrap___aeabi_uidivmod
                0x000000001000333c                div_u32u32
                0x000000001000333c                divmod_u32u32
                0x0000000010003344                divmod_u32u32_unsafe
                0x000000001000336c                divmod_u32u32_savestate
 .text.__wrap___aeabi_ldiv
                0x0000000010003388      0x434 CMakeFiles/main.dir/home/iwo/pico/pico-sdk/src/rp2_common/pico_divider/divider.S.obj
                0x0000000010003388                div_s64s64
                0x0000000010003388                divmod_s64s64
                0x0000000010003388                __wrap___aeabi_ldivmod
                0x00000000100033c0                div_u64u64
                0x00000000100033c0                divmod_u64u64
                0x00000000100033c0                __wrap___aeabi_uldivmod
                0x00000000100033d0                divmod_u64u64_savestate
                0x00000000100033f8                divmod_s64s64_unsafe
                0x0000000010003480                divmod_u64u64_unsafe
 .text.push_r8_r11
                0x00000000100037bc        0xc CMakeFiles/main.dir/home/iwo/pico/pico-sdk/src/rp2_common/pico_double/double_aeabi.S.obj
                0x00000000100037bc                push_r8_r11
 .text.pop_r8_r11
                0x00000000100037c8        0xc CMakeFiles/main.dir/home/iwo/pico/pico-sdk/src/rp2_common/pico_double/double_aeabi.S.obj
                0x00000000100037c8                pop_r8_r11
 .text.__wrap___aeabi_darithmetic
                0x00000000100037d4       0x80 CMakeFiles/main.dir/home/iwo/pico/pico-sdk/src/rp2_common/pico_double/double_aeabi.S.obj
                0x00000000100037d4                __wrap___aeabi_drsub
                0x00000000100037da                __wrap___aeabi_dsub
                0x00000000100037ec                __wrap___aeabi_dadd
                0x00000000100037fe                __wrap___aeabi_ddiv
                0x000000001000383a                __wrap___aeabi_dmul
 .text.__wrap___aeabi_cdcmple
                0x0000000010003854       0x6c CMakeFiles/main.dir/home/iwo/pico/pico-sdk/src/rp2_common/pico_double/double_aeabi.S.obj
                0x0000000010003854                __wrap___aeabi_cdrcmple
                0x0000000010003864                __wrap___aeabi_cdcmple
                0x0000000010003864                __wrap___aeabi_cdcmpeq
 .text.__wrap___aeabi_dcmplt
                0x00000000100038c0        0xc CMakeFiles/main.dir/home/iwo/pico/pico-sdk/src/rp2_common/pico_double/double_aeabi.S.obj
                0x00000000100038c0                __wrap___aeabi_dcmplt
 .text.__wrap___aeabi_dcmple
                0x00000000100038cc       0x10 CMakeFiles/main.dir/home/iwo/pico/pico-sdk/src/rp2_common/pico_double/double_aeabi.S.obj
                0x00000000100038cc                __wrap___aeabi_dcmple
 .text.__wrap___aeabi_dcmpge
                0x00000000100038dc       0x10 CMakeFiles/main.dir/home/iwo/pico/pico-sdk/src/rp2_common/pico_double/double_aeabi.S.obj
                0x00000000100038dc                __wrap___aeabi_dcmpge
 .text.__wrap___aeabi_dcmpgt
                0x00000000100038ec        0xa CMakeFiles/main.dir/home/iwo/pico/pico-sdk/src/rp2_common/pico_double/double_aeabi.S.obj
                0x00000000100038ec                __wrap___aeabi_dcmpgt
 .text.__wrap___aeabi_dcmpun
                0x00000000100038f6       0x1c CMakeFiles/main.dir/home/iwo/pico/pico-sdk/src/rp2_common/pico_double/double_aeabi.S.obj
                0x00000000100038f6                __wrap___aeabi_dcmpun
 *fill*         0x0000000010003912        0x2 
 .text.__wrap___aeabi_i2d
                0x0000000010003914       0x38 CMakeFiles/main.dir/home/iwo/pico/pico-sdk/src/rp2_common/pico_double/double_aeabi.S.obj
                0x0000000010003914                __wrap___aeabi_ui2d
                0x000000001000391c                __wrap___aeabi_i2d
 .text.__wrap___aeabi_d2iz
                0x000000001000394c       0x48 CMakeFiles/main.dir/home/iwo/pico/pico-sdk/src/rp2_common/pico_double/double_aeabi.S.obj
                0x000000001000394c                __wrap___aeabi_d2iz
                0x000000001000394c                double2int_z
 .text.__wrap___aeabi_d2uiz
                0x0000000010003994       0x18 CMakeFiles/main.dir/home/iwo/pico/pico-sdk/src/rp2_common/pico_double/double_aeabi.S.obj
                0x0000000010003994                double2uint
                0x0000000010003994                __wrap___aeabi_d2uiz
 .text.fix642double
                0x00000000100039ac       0x18 CMakeFiles/main.dir/home/iwo/pico/pico-sdk/src/rp2_common/pico_double/double_aeabi.S.obj
                0x00000000100039ac                fix642double
 .text.__wrap___aeabi_d2f
                0x00000000100039c4       0x18 CMakeFiles/main.dir/home/iwo/pico/pico-sdk/src/rp2_common/pico_double/double_aeabi.S.obj
                0x00000000100039c4                __wrap___aeabi_d2f
 .text.__wrap_sincostan_remainder
                0x00000000100039dc       0x14 CMakeFiles/main.dir/home/iwo/pico/pico-sdk/src/rp2_common/pico_double/double_aeabi.S.obj
                0x00000000100039dc                sincostan_remainder
 .text.__wrap_cos
                0x00000000100039f0       0x2c CMakeFiles/main.dir/home/iwo/pico/pico-sdk/src/rp2_common/pico_double/double_aeabi.S.obj
                0x00000000100039f0                __wrap_cos
 .text.__wrap_sin
                0x0000000010003a1c       0x2c CMakeFiles/main.dir/home/iwo/pico/pico-sdk/src/rp2_common/pico_double/double_aeabi.S.obj
                0x0000000010003a1c                __wrap_sin
 .text.__aeabi_double_init
                0x0000000010003a48       0xc8 CMakeFiles/main.dir/home/iwo/pico/pico-sdk/src/rp2_common/pico_double/double_init_rom.c.obj
                0x0000000010003a48                __aeabi_double_init
 .text.drem_0   0x0000000010003b10      0x130 CMakeFiles/main.dir/home/iwo/pico/pico-sdk/src/rp2_common/pico_double/double_math.c.obj
 .text.__wrap_remquo
                0x0000000010003c40      0x16c CMakeFiles/main.dir/home/iwo/pico/pico-sdk/src/rp2_common/pico_double/double_math.c.obj
                0x0000000010003c40                __wrap_remquo
 .text.__wrap_remainder
                0x0000000010003dac       0x10 CMakeFiles/main.dir/home/iwo/pico/pico-sdk/src/rp2_common/pico_double/double_math.c.obj
                0x0000000010003dac                __wrap_remainder
 .text.double_table_shim_on_use_helper
                0x0000000010003dbc       0x34 CMakeFiles/main.dir/home/iwo/pico/pico-sdk/src/rp2_common/pico_double/double_v1_rom_shim.S.obj
                0x0000000010003dbc                double_table_shim_on_use_helper
 .text.__wrap___aeabi_dsub
                0x0000000010003df0       0x10 CMakeFiles/main.dir/home/iwo/pico/pico-sdk/src/rp2_common/pico_double/double_v1_rom_shim.S.obj
                0x0000000010003df0                drsub_shim
                0x0000000010003df6                dsub_shim
 .text.dadd_shim
                0x0000000010003e00      0x15c CMakeFiles/main.dir/home/iwo/pico/pico-sdk/src/rp2_common/pico_double/double_v1_rom_shim.S.obj
                0x0000000010003e00                dadd_shim
 .text.dmul_shim
                0x0000000010003f5c      0x15c CMakeFiles/main.dir/home/iwo/pico/pico-sdk/src/rp2_common/pico_double/double_v1_rom_shim.S.obj
                0x0000000010003f5c                dmul_shim
 .text.ddiv_shim
                0x00000000100040b8      0x1b0 CMakeFiles/main.dir/home/iwo/pico/pico-sdk/src/rp2_common/pico_double/double_v1_rom_shim.S.obj
                0x00000000100040b8                ddiv_shim
 .text.dcordic_vec_step
                0x0000000010004268        0xe CMakeFiles/main.dir/home/iwo/pico/pico-sdk/src/rp2_common/pico_double/double_v1_rom_shim.S.obj
                0x0000000010004268                dcordic_vec_step
 .text.dcordic_rot_step
                0x0000000010004276       0x76 CMakeFiles/main.dir/home/iwo/pico/pico-sdk/src/rp2_common/pico_double/double_v1_rom_shim.S.obj
                0x0000000010004276                dcordic_rot_step
 .text.double2uint_shim
                0x00000000100042ec        0xe CMakeFiles/main.dir/home/iwo/pico/pico-sdk/src/rp2_common/pico_double/double_v1_rom_shim.S.obj
                0x00000000100042ec                double2uint_shim
                0x00000000100042ee                double2ufix_shim
 .text.double2int64_shim
                0x00000000100042fa       0x1a CMakeFiles/main.dir/home/iwo/pico/pico-sdk/src/rp2_common/pico_double/double_v1_rom_shim.S.obj
                0x00000000100042fa                double2int64_shim
                0x00000000100042fc                double2fix64_shim
 .text.double2uint64_shim
                0x0000000010004314       0x70 CMakeFiles/main.dir/home/iwo/pico/pico-sdk/src/rp2_common/pico_double/double_v1_rom_shim.S.obj
                0x0000000010004314                double2uint64_shim
                0x0000000010004316                double2ufix64_shim
                0x0000000010004336                d2fix_a
 .text.double2float_shim
                0x0000000010004384       0x5c CMakeFiles/main.dir/home/iwo/pico/pico-sdk/src/rp2_common/pico_double/double_v1_rom_shim.S.obj
                0x0000000010004384                double2float_shim
 .text.x2double_shims
                0x00000000100043e0       0x90 CMakeFiles/main.dir/home/iwo/pico/pico-sdk/src/rp2_common/pico_double/double_v1_rom_shim.S.obj
                0x00000000100043e0                uint2double_shim
                0x00000000100043e2                ufix2double_shim
                0x00000000100043e8                int2double_shim
                0x00000000100043ea                fix2double_shim
                0x00000000100043f0                uint642double_shim
                0x00000000100043f2                ufix642double_shim
                0x00000000100043f8                int642double_shim
                0x00000000100043fa                fix642double_shim
 .text.dunpacks
                0x0000000010004470       0x3c CMakeFiles/main.dir/home/iwo/pico/pico-sdk/src/rp2_common/pico_double/double_v1_rom_shim.S.obj
                0x0000000010004470                dunpacks
 .text.dreduce  0x00000000100044ac       0x82 CMakeFiles/main.dir/home/iwo/pico/pico-sdk/src/rp2_common/pico_double/double_v1_rom_shim.S.obj
                0x00000000100044ac                dreduce
 .text.dcos_shim
                0x000000001000452e       0x10 CMakeFiles/main.dir/home/iwo/pico/pico-sdk/src/rp2_common/pico_double/double_v1_rom_shim.S.obj
                0x000000001000452e                dcos_shim
 .text.dsin_shim
                0x000000001000453e       0x14 CMakeFiles/main.dir/home/iwo/pico/pico-sdk/src/rp2_common/pico_double/double_v1_rom_shim.S.obj
                0x000000001000453e                dsin_shim
 *fill*         0x0000000010004552        0x2 
 .text.dtrig_guts
                0x0000000010004554      0x2ec CMakeFiles/main.dir/home/iwo/pico/pico-sdk/src/rp2_common/pico_double/double_v1_rom_shim.S.obj
                0x000000001000462c                datan2_shim
 .text.__aeabi_lmul
                0x0000000010004840       0x32 CMakeFiles/main.dir/home/iwo/pico/pico-sdk/src/rp2_common/pico_int64_ops/pico_int64_ops_aeabi.S.obj
                0x0000000010004840                __wrap___aeabi_lmul
 *fill*         0x0000000010004872        0x2 
 .text.__wrap___aeabi_i2f
                0x0000000010004874       0x44 CMakeFiles/main.dir/home/iwo/pico/pico-sdk/src/rp2_common/pico_float/float_aeabi.S.obj
                0x0000000010004874                __wrap___aeabi_i2f
 .text.__wrap___aeabi_f2iz
                0x00000000100048b8       0x4e CMakeFiles/main.dir/home/iwo/pico/pico-sdk/src/rp2_common/pico_float/float_aeabi.S.obj
                0x00000000100048b8                __wrap___aeabi_f2iz
                0x00000000100048b8                float2int_z
 *fill*         0x0000000010004906        0x2 
 .text.float2int
                0x0000000010004908       0x14 CMakeFiles/main.dir/home/iwo/pico/pico-sdk/src/rp2_common/pico_float/float_aeabi.S.obj
                0x0000000010004908                float2int
 .text.__wrap___aeabi_f2uiz
                0x000000001000491c       0x10 CMakeFiles/main.dir/home/iwo/pico/pico-sdk/src/rp2_common/pico_float/float_aeabi.S.obj
                0x000000001000491c                __wrap___aeabi_f2uiz
 .text.__wrap___aeabi_f2d
                0x000000001000492c       0x14 CMakeFiles/main.dir/home/iwo/pico/pico-sdk/src/rp2_common/pico_float/float_aeabi.S.obj
                0x000000001000492c                __wrap___aeabi_f2d
 .text.__aeabi_float_init
                0x0000000010004940       0xfc CMakeFiles/main.dir/home/iwo/pico/pico-sdk/src/rp2_common/pico_float/float_init_rom.c.obj
                0x0000000010004940                __aeabi_float_init
 .text.float_table_shim_on_use_helper
                0x0000000010004a3c       0x34 CMakeFiles/main.dir/home/iwo/pico/pico-sdk/src/rp2_common/pico_float/float_v1_rom_shim.S.obj
                0x0000000010004a3c                float_table_shim_on_use_helper
 .text.float232_shims
                0x0000000010004a70       0x18 CMakeFiles/main.dir/home/iwo/pico/pico-sdk/src/rp2_common/pico_float/float_v1_rom_shim.S.obj
                0x0000000010004a70                float2int_shim
                0x0000000010004a72                float2fix_shim
 .text.float2double_shim
                0x0000000010004a88       0x30 CMakeFiles/main.dir/home/iwo/pico/pico-sdk/src/rp2_common/pico_float/float_v1_rom_shim.S.obj
                0x0000000010004a88                float2double_shim
 .text.__wrap_malloc
                0x0000000010004ab8       0x24 CMakeFiles/main.dir/home/iwo/pico/pico-sdk/src/rp2_common/pico_malloc/pico_malloc.c.obj
                0x0000000010004ab8                __wrap_malloc
 .text          0x0000000010004adc       0x10 CMakeFiles/main.dir/home/iwo/pico/pico-sdk/src/rp2_common/pico_mem_ops/mem_ops_aeabi.S.obj
                0x0000000010004adc                __aeabi_mem_init
 .text.memset   0x0000000010004aec        0xc CMakeFiles/main.dir/home/iwo/pico/pico-sdk/src/rp2_common/pico_mem_ops/mem_ops_aeabi.S.obj
                0x0000000010004aec                __wrap_memset
 .text.memcpy   0x0000000010004af8        0xc CMakeFiles/main.dir/home/iwo/pico/pico-sdk/src/rp2_common/pico_mem_ops/mem_ops_aeabi.S.obj
                0x0000000010004af8                __wrap___aeabi_memcpy
                0x0000000010004af8                __wrap_memcpy
 .text.stdio_out_chars_no_crlf
                0x0000000010004b04        0xe CMakeFiles/main.dir/home/iwo/pico/pico-sdk/src/rp2_common/pico_stdio/stdio.c.obj
 *fill*         0x0000000010004b12        0x2 
 .text.stdio_out_chars_crlf
                0x0000000010004b14       0x80 CMakeFiles/main.dir/home/iwo/pico/pico-sdk/src/rp2_common/pico_stdio/stdio.c.obj
 .text.stdio_stack_buffer_flush
                0x0000000010004b94       0x44 CMakeFiles/main.dir/home/iwo/pico/pico-sdk/src/rp2_common/pico_stdio/stdio.c.obj
 .text.stdio_buffered_printer
                0x0000000010004bd8       0x20 CMakeFiles/main.dir/home/iwo/pico/pico-sdk/src/rp2_common/pico_stdio/stdio.c.obj
 .text.stdout_serialize_begin
                0x0000000010004bf8       0x30 CMakeFiles/main.dir/home/iwo/pico/pico-sdk/src/rp2_common/pico_stdio/stdio.c.obj
                0x0000000010004bf8                stdout_serialize_begin
 .text.stdout_serialize_end
                0x0000000010004c28       0x10 CMakeFiles/main.dir/home/iwo/pico/pico-sdk/src/rp2_common/pico_stdio/stdio.c.obj
                0x0000000010004c28                stdout_serialize_end
 .text.stdio_put_string
                0x0000000010004c38       0x98 CMakeFiles/main.dir/home/iwo/pico/pico-sdk/src/rp2_common/pico_stdio/stdio.c.obj
 .text.stdio_set_driver_enabled
                0x0000000010004cd0       0x38 CMakeFiles/main.dir/home/iwo/pico/pico-sdk/src/rp2_common/pico_stdio/stdio.c.obj
                0x0000000010004cd0                stdio_set_driver_enabled
 .text.stdio_flush
                0x0000000010004d08       0x20 CMakeFiles/main.dir/home/iwo/pico/pico-sdk/src/rp2_common/pico_stdio/stdio.c.obj
                0x0000000010004d08                stdio_flush
 .text.__wrap_puts
                0x0000000010004d28       0x1e CMakeFiles/main.dir/home/iwo/pico/pico-sdk/src/rp2_common/pico_stdio/stdio.c.obj
                0x0000000010004d28                __wrap_puts
 *fill*         0x0000000010004d46        0x2 
 .text.__wrap_vprintf
                0x0000000010004d48       0x44 CMakeFiles/main.dir/home/iwo/pico/pico-sdk/src/rp2_common/pico_stdio/stdio.c.obj
                0x0000000010004d48                __wrap_vprintf
 .text.__wrap_printf
                0x0000000010004d8c       0x18 CMakeFiles/main.dir/home/iwo/pico/pico-sdk/src/rp2_common/pico_stdio/stdio.c.obj
                0x0000000010004d8c                __wrap_printf
 .text.stdio_init_all
                0x0000000010004da4        0x8 CMakeFiles/main.dir/home/iwo/pico/pico-sdk/src/rp2_common/pico_stdio/stdio.c.obj
                0x0000000010004da4                stdio_init_all
 .text.resetd_init
                0x0000000010004dac        0x2 CMakeFiles/main.dir/home/iwo/pico/pico-sdk/src/rp2_common/pico_stdio_usb/reset_interface.c.obj
 *fill*         0x0000000010004dae        0x2 
 .text.resetd_reset
                0x0000000010004db0        0xc CMakeFiles/main.dir/home/iwo/pico/pico-sdk/src/rp2_common/pico_stdio_usb/reset_interface.c.obj
 .text.resetd_open
                0x0000000010004dbc       0x34 CMakeFiles/main.dir/home/iwo/pico/pico-sdk/src/rp2_common/pico_stdio_usb/reset_interface.c.obj
 .text.resetd_xfer_cb
                0x0000000010004df0        0x4 CMakeFiles/main.dir/home/iwo/pico/pico-sdk/src/rp2_common/pico_stdio_usb/reset_interface.c.obj
 .text.resetd_control_xfer_cb
                0x0000000010004df4       0x6c CMakeFiles/main.dir/home/iwo/pico/pico-sdk/src/rp2_common/pico_stdio_usb/reset_interface.c.obj
 .text.usbd_app_driver_get_cb
                0x0000000010004e60        0xc CMakeFiles/main.dir/home/iwo/pico/pico-sdk/src/rp2_common/pico_stdio_usb/reset_interface.c.obj
                0x0000000010004e60                usbd_app_driver_get_cb
 .text.tud_cdc_line_coding_cb
                0x0000000010004e6c       0x34 CMakeFiles/main.dir/home/iwo/pico/pico-sdk/src/rp2_common/pico_stdio_usb/reset_interface.c.obj
                0x0000000010004e6c                tud_cdc_line_coding_cb
 .text.stdio_usb_in_chars
                0x0000000010004ea0       0x70 CMakeFiles/main.dir/home/iwo/pico/pico-sdk/src/rp2_common/pico_stdio_usb/stdio_usb.c.obj
                0x0000000010004ea0                stdio_usb_in_chars
 .text.low_priority_worker_irq
                0x0000000010004f10       0x20 CMakeFiles/main.dir/home/iwo/pico/pico-sdk/src/rp2_common/pico_stdio_usb/stdio_usb.c.obj
 .text.stdio_usb_out_chars
                0x0000000010004f30       0xd4 CMakeFiles/main.dir/home/iwo/pico/pico-sdk/src/rp2_common/pico_stdio_usb/stdio_usb.c.obj
 .text.timer_task
                0x0000000010005004       0x10 CMakeFiles/main.dir/home/iwo/pico/pico-sdk/src/rp2_common/pico_stdio_usb/stdio_usb.c.obj
 .text.stdio_usb_init
                0x0000000010005014       0xb8 CMakeFiles/main.dir/home/iwo/pico/pico-sdk/src/rp2_common/pico_stdio_usb/stdio_usb.c.obj
                0x0000000010005014                stdio_usb_init
 .text.tud_descriptor_device_cb
                0x00000000100050cc        0x8 CMakeFiles/main.dir/home/iwo/pico/pico-sdk/src/rp2_common/pico_stdio_usb/stdio_usb_descriptors.c.obj
                0x00000000100050cc                tud_descriptor_device_cb
 .text.tud_descriptor_configuration_cb
                0x00000000100050d4        0x8 CMakeFiles/main.dir/home/iwo/pico/pico-sdk/src/rp2_common/pico_stdio_usb/stdio_usb_descriptors.c.obj
                0x00000000100050d4                tud_descriptor_configuration_cb
 .text.tud_descriptor_string_cb
                0x00000000100050dc       0x6c CMakeFiles/main.dir/home/iwo/pico/pico-sdk/src/rp2_common/pico_stdio_usb/stdio_usb_descriptors.c.obj
                0x00000000100050dc                tud_descriptor_string_cb
 .text.hw_endpoint_get_by_addr
                0x0000000010005148       0x18 CMakeFiles/main.dir/home/iwo/pico/pico-sdk/lib/tinyusb/src/portable/raspberrypi/rp2040/dcd_rp2040.c.obj
 .text.reset_ep0_pid
                0x0000000010005160       0x28 CMakeFiles/main.dir/home/iwo/pico/pico-sdk/lib/tinyusb/src/portable/raspberrypi/rp2040/dcd_rp2040.c.obj
 .text._hw_endpoint_alloc
                0x0000000010005188       0x70 CMakeFiles/main.dir/home/iwo/pico/pico-sdk/lib/tinyusb/src/portable/raspberrypi/rp2040/dcd_rp2040.c.obj
 .text.hw_endpoint_init
                0x00000000100051f8       0x88 CMakeFiles/main.dir/home/iwo/pico/pico-sdk/lib/tinyusb/src/portable/raspberrypi/rp2040/dcd_rp2040.c.obj
 .text.reset_non_control_endpoints
                0x0000000010005280       0x40 CMakeFiles/main.dir/home/iwo/pico/pico-sdk/lib/tinyusb/src/portable/raspberrypi/rp2040/dcd_rp2040.c.obj
 .text.hw_handle_buff_status
                0x00000000100052c0       0x8c CMakeFiles/main.dir/home/iwo/pico/pico-sdk/lib/tinyusb/src/portable/raspberrypi/rp2040/dcd_rp2040.c.obj
 .text.dcd_rp2040_irq
                0x000000001000534c       0xc0 CMakeFiles/main.dir/home/iwo/pico/pico-sdk/lib/tinyusb/src/portable/raspberrypi/rp2040/dcd_rp2040.c.obj
 .text.hw_endpoint_xfer
                0x000000001000540c       0x14 CMakeFiles/main.dir/home/iwo/pico/pico-sdk/lib/tinyusb/src/portable/raspberrypi/rp2040/dcd_rp2040.c.obj
 .text.dcd_int_enable
                0x0000000010005420       0x2c CMakeFiles/main.dir/home/iwo/pico/pico-sdk/lib/tinyusb/src/portable/raspberrypi/rp2040/dcd_rp2040.c.obj
                0x0000000010005420                dcd_int_enable
 .text.dcd_set_address
                0x000000001000544c       0x2c CMakeFiles/main.dir/home/iwo/pico/pico-sdk/lib/tinyusb/src/portable/raspberrypi/rp2040/dcd_rp2040.c.obj
                0x000000001000544c                dcd_set_address
 .text.dcd_connect
                0x0000000010005478       0x10 CMakeFiles/main.dir/home/iwo/pico/pico-sdk/lib/tinyusb/src/portable/raspberrypi/rp2040/dcd_rp2040.c.obj
                0x0000000010005478                dcd_connect
 .text.dcd_init
                0x0000000010005488       0x7c CMakeFiles/main.dir/home/iwo/pico/pico-sdk/lib/tinyusb/src/portable/raspberrypi/rp2040/dcd_rp2040.c.obj
                0x0000000010005488                dcd_init
 .text.dcd_edpt0_status_complete
                0x0000000010005504       0x1c CMakeFiles/main.dir/home/iwo/pico/pico-sdk/lib/tinyusb/src/portable/raspberrypi/rp2040/dcd_rp2040.c.obj
                0x0000000010005504                dcd_edpt0_status_complete
 .text.dcd_edpt_open
                0x0000000010005520       0x40 CMakeFiles/main.dir/home/iwo/pico/pico-sdk/lib/tinyusb/src/portable/raspberrypi/rp2040/dcd_rp2040.c.obj
                0x0000000010005520                dcd_edpt_open
 .text.dcd_edpt_close_all
                0x0000000010005560        0x8 CMakeFiles/main.dir/home/iwo/pico/pico-sdk/lib/tinyusb/src/portable/raspberrypi/rp2040/dcd_rp2040.c.obj
                0x0000000010005560                dcd_edpt_close_all
 .text.dcd_edpt_xfer
                0x0000000010005568       0x30 CMakeFiles/main.dir/home/iwo/pico/pico-sdk/lib/tinyusb/src/portable/raspberrypi/rp2040/dcd_rp2040.c.obj
                0x0000000010005568                dcd_edpt_xfer
 .text.dcd_edpt_stall
                0x0000000010005598       0x2c CMakeFiles/main.dir/home/iwo/pico/pico-sdk/lib/tinyusb/src/portable/raspberrypi/rp2040/dcd_rp2040.c.obj
                0x0000000010005598                dcd_edpt_stall
 .text.dcd_edpt_clear_stall
                0x00000000100055c4       0x20 CMakeFiles/main.dir/home/iwo/pico/pico-sdk/lib/tinyusb/src/portable/raspberrypi/rp2040/dcd_rp2040.c.obj
                0x00000000100055c4                dcd_edpt_clear_stall
 .text.prepare_ep_buffer
                0x00000000100055e4       0x70 CMakeFiles/main.dir/home/iwo/pico/pico-sdk/lib/tinyusb/src/portable/raspberrypi/rp2040/rp2040_usb.c.obj
 .text.sync_ep_buffer
                0x0000000010005654       0x7c CMakeFiles/main.dir/home/iwo/pico/pico-sdk/lib/tinyusb/src/portable/raspberrypi/rp2040/rp2040_usb.c.obj
 .text._hw_endpoint_xfer_sync
                0x00000000100056d0       0x28 CMakeFiles/main.dir/home/iwo/pico/pico-sdk/lib/tinyusb/src/portable/raspberrypi/rp2040/rp2040_usb.c.obj
 .text.rp2040_usb_init
                0x00000000100056f8       0x4c CMakeFiles/main.dir/home/iwo/pico/pico-sdk/lib/tinyusb/src/portable/raspberrypi/rp2040/rp2040_usb.c.obj
                0x00000000100056f8                rp2040_usb_init
 .text.hw_endpoint_reset_transfer
                0x0000000010005744        0xc CMakeFiles/main.dir/home/iwo/pico/pico-sdk/lib/tinyusb/src/portable/raspberrypi/rp2040/rp2040_usb.c.obj
                0x0000000010005744                hw_endpoint_reset_transfer
 .text._hw_endpoint_buffer_control_update32
                0x0000000010005750       0x58 CMakeFiles/main.dir/home/iwo/pico/pico-sdk/lib/tinyusb/src/portable/raspberrypi/rp2040/rp2040_usb.c.obj
                0x0000000010005750                _hw_endpoint_buffer_control_update32
 .text._hw_endpoint_start_next_buffer
                0x00000000100057a8       0x74 CMakeFiles/main.dir/home/iwo/pico/pico-sdk/lib/tinyusb/src/portable/raspberrypi/rp2040/rp2040_usb.c.obj
 .text.hw_endpoint_xfer_start
                0x000000001000581c       0x48 CMakeFiles/main.dir/home/iwo/pico/pico-sdk/lib/tinyusb/src/portable/raspberrypi/rp2040/rp2040_usb.c.obj
                0x000000001000581c                hw_endpoint_xfer_start
 .text.hw_endpoint_xfer_continue
                0x0000000010005864       0x38 CMakeFiles/main.dir/home/iwo/pico/pico-sdk/lib/tinyusb/src/portable/raspberrypi/rp2040/rp2040_usb.c.obj
                0x0000000010005864                hw_endpoint_xfer_continue
 .text.configuration_reset
                0x000000001000589c       0x84 CMakeFiles/main.dir/home/iwo/pico/pico-sdk/lib/tinyusb/src/device/usbd.c.obj
 .text.usbd_reset
                0x0000000010005920        0xc CMakeFiles/main.dir/home/iwo/pico/pico-sdk/lib/tinyusb/src/device/usbd.c.obj
 .text.invoke_class_control
                0x000000001000592c       0x1a CMakeFiles/main.dir/home/iwo/pico/pico-sdk/lib/tinyusb/src/device/usbd.c.obj
 *fill*         0x0000000010005946        0x2 
 .text.process_set_config
                0x0000000010005948      0x1ac CMakeFiles/main.dir/home/iwo/pico/pico-sdk/lib/tinyusb/src/device/usbd.c.obj
 .text.process_get_descriptor
                0x0000000010005af4       0xec CMakeFiles/main.dir/home/iwo/pico/pico-sdk/lib/tinyusb/src/device/usbd.c.obj
 .text.tud_mounted
                0x0000000010005be0       0x10 CMakeFiles/main.dir/home/iwo/pico/pico-sdk/lib/tinyusb/src/device/usbd.c.obj
                0x0000000010005be0                tud_mounted
 .text.tud_suspended
                0x0000000010005bf0       0x10 CMakeFiles/main.dir/home/iwo/pico/pico-sdk/lib/tinyusb/src/device/usbd.c.obj
                0x0000000010005bf0                tud_suspended
 .text.tud_inited
                0x0000000010005c00        0xc CMakeFiles/main.dir/home/iwo/pico/pico-sdk/lib/tinyusb/src/device/usbd.c.obj
                0x0000000010005c00                tud_inited
 .text.tud_init
                0x0000000010005c0c       0xcc CMakeFiles/main.dir/home/iwo/pico/pico-sdk/lib/tinyusb/src/device/usbd.c.obj
                0x0000000010005c0c                tud_init
 .text.dcd_event_handler
                0x0000000010005cd8      0x1e0 CMakeFiles/main.dir/home/iwo/pico/pico-sdk/lib/tinyusb/src/device/usbd.c.obj
                0x0000000010005cd8                dcd_event_handler
 .text.dcd_event_bus_signal
                0x0000000010005eb8       0x26 CMakeFiles/main.dir/home/iwo/pico/pico-sdk/lib/tinyusb/src/device/usbd.c.obj
                0x0000000010005eb8                dcd_event_bus_signal
 .text.dcd_event_bus_reset
                0x0000000010005ede       0x2a CMakeFiles/main.dir/home/iwo/pico/pico-sdk/lib/tinyusb/src/device/usbd.c.obj
                0x0000000010005ede                dcd_event_bus_reset
 .text.dcd_event_setup_received
                0x0000000010005f08       0x34 CMakeFiles/main.dir/home/iwo/pico/pico-sdk/lib/tinyusb/src/device/usbd.c.obj
                0x0000000010005f08                dcd_event_setup_received
 .text.dcd_event_xfer_complete
                0x0000000010005f3c       0x44 CMakeFiles/main.dir/home/iwo/pico/pico-sdk/lib/tinyusb/src/device/usbd.c.obj
                0x0000000010005f3c                dcd_event_xfer_complete
 .text.usbd_edpt_open
                0x0000000010005f80       0x58 CMakeFiles/main.dir/home/iwo/pico/pico-sdk/lib/tinyusb/src/device/usbd.c.obj
                0x0000000010005f80                usbd_edpt_open
 .text.usbd_open_edpt_pair
                0x0000000010005fd8       0x8c CMakeFiles/main.dir/home/iwo/pico/pico-sdk/lib/tinyusb/src/device/usbd.c.obj
                0x0000000010005fd8                usbd_open_edpt_pair
 .text.usbd_edpt_claim
                0x0000000010006064       0x8c CMakeFiles/main.dir/home/iwo/pico/pico-sdk/lib/tinyusb/src/device/usbd.c.obj
                0x0000000010006064                usbd_edpt_claim
 .text.usbd_edpt_release
                0x00000000100060f0       0x68 CMakeFiles/main.dir/home/iwo/pico/pico-sdk/lib/tinyusb/src/device/usbd.c.obj
                0x00000000100060f0                usbd_edpt_release
 .text.usbd_edpt_xfer
                0x0000000010006158       0x80 CMakeFiles/main.dir/home/iwo/pico/pico-sdk/lib/tinyusb/src/device/usbd.c.obj
                0x0000000010006158                usbd_edpt_xfer
 .text.usbd_edpt_stall
                0x00000000100061d8       0x40 CMakeFiles/main.dir/home/iwo/pico/pico-sdk/lib/tinyusb/src/device/usbd.c.obj
                0x00000000100061d8                usbd_edpt_stall
 .text.usbd_edpt_clear_stall
                0x0000000010006218       0x40 CMakeFiles/main.dir/home/iwo/pico/pico-sdk/lib/tinyusb/src/device/usbd.c.obj
                0x0000000010006218                usbd_edpt_clear_stall
 .text.usbd_edpt_stalled
                0x0000000010006258       0x1c CMakeFiles/main.dir/home/iwo/pico/pico-sdk/lib/tinyusb/src/device/usbd.c.obj
                0x0000000010006258                usbd_edpt_stalled
 .text.process_control_request
                0x0000000010006274      0x3b8 CMakeFiles/main.dir/home/iwo/pico/pico-sdk/lib/tinyusb/src/device/usbd.c.obj
 .text.tud_task
                0x000000001000662c      0x218 CMakeFiles/main.dir/home/iwo/pico/pico-sdk/lib/tinyusb/src/device/usbd.c.obj
                0x000000001000662c                tud_task
 .text._data_stage_xact
                0x0000000010006844       0x58 CMakeFiles/main.dir/home/iwo/pico/pico-sdk/lib/tinyusb/src/device/usbd_control.c.obj
 .text.tud_control_status
                0x000000001000689c       0x38 CMakeFiles/main.dir/home/iwo/pico/pico-sdk/lib/tinyusb/src/device/usbd_control.c.obj
                0x000000001000689c                tud_control_status
 .text.tud_control_xfer
                0x00000000100068d4       0xa8 CMakeFiles/main.dir/home/iwo/pico/pico-sdk/lib/tinyusb/src/device/usbd_control.c.obj
                0x00000000100068d4                tud_control_xfer
 .text.usbd_control_reset
                0x000000001000697c       0x14 CMakeFiles/main.dir/home/iwo/pico/pico-sdk/lib/tinyusb/src/device/usbd_control.c.obj
                0x000000001000697c                usbd_control_reset
 .text.usbd_control_set_complete_callback
                0x0000000010006990        0xc CMakeFiles/main.dir/home/iwo/pico/pico-sdk/lib/tinyusb/src/device/usbd_control.c.obj
                0x0000000010006990                usbd_control_set_complete_callback
 .text.usbd_control_set_request
                0x000000001000699c       0x1c CMakeFiles/main.dir/home/iwo/pico/pico-sdk/lib/tinyusb/src/device/usbd_control.c.obj
                0x000000001000699c                usbd_control_set_request
 .text.usbd_control_xfer_cb
                0x00000000100069b8       0xfc CMakeFiles/main.dir/home/iwo/pico/pico-sdk/lib/tinyusb/src/device/usbd_control.c.obj
                0x00000000100069b8                usbd_control_xfer_cb
 .text._prep_out_transaction
                0x0000000010006ab4       0x46 CMakeFiles/main.dir/home/iwo/pico/pico-sdk/lib/tinyusb/src/class/cdc/cdc_device.c.obj
 *fill*         0x0000000010006afa        0x2 
 .text.tud_cdc_n_connected
                0x0000000010006afc       0x44 CMakeFiles/main.dir/home/iwo/pico/pico-sdk/lib/tinyusb/src/class/cdc/cdc_device.c.obj
                0x0000000010006afc                tud_cdc_n_connected
 .text.tud_cdc_n_available
                0x0000000010006b40       0x18 CMakeFiles/main.dir/home/iwo/pico/pico-sdk/lib/tinyusb/src/class/cdc/cdc_device.c.obj
                0x0000000010006b40                tud_cdc_n_available
 .text.tud_cdc_n_read
                0x0000000010006b58       0x28 CMakeFiles/main.dir/home/iwo/pico/pico-sdk/lib/tinyusb/src/class/cdc/cdc_device.c.obj
                0x0000000010006b58                tud_cdc_n_read
 .text.tud_cdc_n_write_flush
                0x0000000010006b80       0xcc CMakeFiles/main.dir/home/iwo/pico/pico-sdk/lib/tinyusb/src/class/cdc/cdc_device.c.obj
                0x0000000010006b80                tud_cdc_n_write_flush
 .text.tud_cdc_n_write
                0x0000000010006c4c       0x38 CMakeFiles/main.dir/home/iwo/pico/pico-sdk/lib/tinyusb/src/class/cdc/cdc_device.c.obj
                0x0000000010006c4c                tud_cdc_n_write
 .text.tud_cdc_n_write_available
                0x0000000010006c84       0x1c CMakeFiles/main.dir/home/iwo/pico/pico-sdk/lib/tinyusb/src/class/cdc/cdc_device.c.obj
                0x0000000010006c84                tud_cdc_n_write_available
 .text.cdcd_init
                0x0000000010006ca0       0xbc CMakeFiles/main.dir/home/iwo/pico/pico-sdk/lib/tinyusb/src/class/cdc/cdc_device.c.obj
                0x0000000010006ca0                cdcd_init
 .text.cdcd_reset
                0x0000000010006d5c       0x44 CMakeFiles/main.dir/home/iwo/pico/pico-sdk/lib/tinyusb/src/class/cdc/cdc_device.c.obj
                0x0000000010006d5c                cdcd_reset
 .text.cdcd_open
                0x0000000010006da0       0xf8 CMakeFiles/main.dir/home/iwo/pico/pico-sdk/lib/tinyusb/src/class/cdc/cdc_device.c.obj
                0x0000000010006da0                cdcd_open
 .text.cdcd_control_xfer_cb
                0x0000000010006e98      0x134 CMakeFiles/main.dir/home/iwo/pico/pico-sdk/lib/tinyusb/src/class/cdc/cdc_device.c.obj
                0x0000000010006e98                cdcd_control_xfer_cb
 .text.cdcd_xfer_cb
                0x0000000010006fcc      0x144 CMakeFiles/main.dir/home/iwo/pico/pico-sdk/lib/tinyusb/src/class/cdc/cdc_device.c.obj
                0x0000000010006fcc                cdcd_xfer_cb
 .text.tusb_init
                0x0000000010007110       0x24 CMakeFiles/main.dir/home/iwo/pico/pico-sdk/lib/tinyusb/src/tusb.c.obj
                0x0000000010007110                tusb_init
 .text.tusb_inited
                0x0000000010007134        0xe CMakeFiles/main.dir/home/iwo/pico/pico-sdk/lib/tinyusb/src/tusb.c.obj
                0x0000000010007134                tusb_inited
 *fill*         0x0000000010007142        0x2 
 .text.tu_edpt_validate
                0x0000000010007144       0xa8 CMakeFiles/main.dir/home/iwo/pico/pico-sdk/lib/tinyusb/src/tusb.c.obj
                0x0000000010007144                tu_edpt_validate
 .text.tu_edpt_bind_driver
                0x00000000100071ec       0x2a CMakeFiles/main.dir/home/iwo/pico/pico-sdk/lib/tinyusb/src/tusb.c.obj
                0x00000000100071ec                tu_edpt_bind_driver
 .text.advance_pointer
                0x0000000010007216       0x18 CMakeFiles/main.dir/home/iwo/pico/pico-sdk/lib/tinyusb/src/common/tusb_fifo.c.obj
 .text.backward_pointer
                0x000000001000722e       0x1e CMakeFiles/main.dir/home/iwo/pico/pico-sdk/lib/tinyusb/src/common/tusb_fifo.c.obj
 .text.get_relative_pointer
                0x000000001000724c       0x10 CMakeFiles/main.dir/home/iwo/pico/pico-sdk/lib/tinyusb/src/common/tusb_fifo.c.obj
 .text._tu_fifo_peek
                0x000000001000725c       0x50 CMakeFiles/main.dir/home/iwo/pico/pico-sdk/lib/tinyusb/src/common/tusb_fifo.c.obj
 .text._ff_pull_const_addr
                0x00000000100072ac       0x4c CMakeFiles/main.dir/home/iwo/pico/pico-sdk/lib/tinyusb/src/common/tusb_fifo.c.obj
 .text._ff_pull_n
                0x00000000100072f8      0x10c CMakeFiles/main.dir/home/iwo/pico/pico-sdk/lib/tinyusb/src/common/tusb_fifo.c.obj
 .text._tu_fifo_peek_n
                0x0000000010007404       0x5e CMakeFiles/main.dir/home/iwo/pico/pico-sdk/lib/tinyusb/src/common/tusb_fifo.c.obj
 .text._tu_fifo_read_n
                0x0000000010007462       0x4e CMakeFiles/main.dir/home/iwo/pico/pico-sdk/lib/tinyusb/src/common/tusb_fifo.c.obj
 .text._ff_push_const_addr
                0x00000000100074b0       0x40 CMakeFiles/main.dir/home/iwo/pico/pico-sdk/lib/tinyusb/src/common/tusb_fifo.c.obj
 .text._ff_push_n
                0x00000000100074f0      0x106 CMakeFiles/main.dir/home/iwo/pico/pico-sdk/lib/tinyusb/src/common/tusb_fifo.c.obj
 .text._tu_fifo_write_n
                0x00000000100075f6       0x9e CMakeFiles/main.dir/home/iwo/pico/pico-sdk/lib/tinyusb/src/common/tusb_fifo.c.obj
 .text.tu_fifo_config
                0x0000000010007694       0x72 CMakeFiles/main.dir/home/iwo/pico/pico-sdk/lib/tinyusb/src/common/tusb_fifo.c.obj
                0x0000000010007694                tu_fifo_config
 .text.tu_fifo_count
                0x0000000010007706       0x26 CMakeFiles/main.dir/home/iwo/pico/pico-sdk/lib/tinyusb/src/common/tusb_fifo.c.obj
                0x0000000010007706                tu_fifo_count
 .text.tu_fifo_empty
                0x000000001000772c        0xe CMakeFiles/main.dir/home/iwo/pico/pico-sdk/lib/tinyusb/src/common/tusb_fifo.c.obj
                0x000000001000772c                tu_fifo_empty
 .text.tu_fifo_remaining
                0x000000001000773a       0x20 CMakeFiles/main.dir/home/iwo/pico/pico-sdk/lib/tinyusb/src/common/tusb_fifo.c.obj
                0x000000001000773a                tu_fifo_remaining
 .text.tu_fifo_read
                0x000000001000775a       0x42 CMakeFiles/main.dir/home/iwo/pico/pico-sdk/lib/tinyusb/src/common/tusb_fifo.c.obj
                0x000000001000775a                tu_fifo_read
 .text.tu_fifo_read_n
                0x000000001000779c        0xa CMakeFiles/main.dir/home/iwo/pico/pico-sdk/lib/tinyusb/src/common/tusb_fifo.c.obj
                0x000000001000779c                tu_fifo_read_n
 .text.tu_fifo_write
                0x00000000100077a6       0x6c CMakeFiles/main.dir/home/iwo/pico/pico-sdk/lib/tinyusb/src/common/tusb_fifo.c.obj
                0x00000000100077a6                tu_fifo_write
 .text.tu_fifo_write_n
                0x0000000010007812        0xa CMakeFiles/main.dir/home/iwo/pico/pico-sdk/lib/tinyusb/src/common/tusb_fifo.c.obj
                0x0000000010007812                tu_fifo_write_n
 .text.tu_fifo_clear
                0x000000001000781c       0x4c CMakeFiles/main.dir/home/iwo/pico/pico-sdk/lib/tinyusb/src/common/tusb_fifo.c.obj
                0x000000001000781c                tu_fifo_clear
 .text.tu_fifo_set_overwritable
                0x0000000010007868       0x3c CMakeFiles/main.dir/home/iwo/pico/pico-sdk/lib/tinyusb/src/common/tusb_fifo.c.obj
                0x0000000010007868                tu_fifo_set_overwritable
 .text._retrieve_unique_id_on_boot
                0x00000000100078a4       0x10 CMakeFiles/main.dir/home/iwo/pico/pico-sdk/src/rp2_common/pico_unique_id/unique_id.c.obj
 .text.pico_get_unique_board_id_string
                0x00000000100078b4       0x60 CMakeFiles/main.dir/home/iwo/pico/pico-sdk/src/rp2_common/pico_unique_id/unique_id.c.obj
                0x00000000100078b4                pico_get_unique_board_id_string
 .text.flash_get_unique_id
                0x0000000010007914       0x46 CMakeFiles/main.dir/home/iwo/pico/pico-sdk/src/rp2_common/hardware_flash/flash.c.obj
                0x0000000010007914                flash_get_unique_id
 .text.spi_set_baudrate
                0x000000001000795a       0x94 CMakeFiles/main.dir/home/iwo/pico/pico-sdk/src/rp2_common/hardware_spi/spi.c.obj
                0x000000001000795a                spi_set_baudrate
 *fill*         0x00000000100079ee        0x2 
 .text.spi_init
                0x00000000100079f0       0x68 CMakeFiles/main.dir/home/iwo/pico/pico-sdk/src/rp2_common/hardware_spi/spi.c.obj
                0x00000000100079f0                spi_init
 .text.i2c_set_baudrate
                0x0000000010007a58       0xf0 CMakeFiles/main.dir/home/iwo/pico/pico-sdk/src/rp2_common/hardware_i2c/i2c.c.obj
                0x0000000010007a58                i2c_set_baudrate
 .text.i2c_init
                0x0000000010007b48       0x58 CMakeFiles/main.dir/home/iwo/pico/pico-sdk/src/rp2_common/hardware_i2c/i2c.c.obj
                0x0000000010007b48                i2c_init
 .text.update_clock
                0x0000000010007ba0       0x3c examples/libexamples.a(LCD_2in_test.c.obj)
                0x0000000010007ba0                update_clock
 .text.polar    0x0000000010007bdc       0x8c examples/libexamples.a(LCD_2in_test.c.obj)
                0x0000000010007bdc                polar
 .text.draw_seconds
                0x0000000010007c68       0x7c examples/libexamples.a(LCD_2in_test.c.obj)
                0x0000000010007c68                draw_seconds
 .text.draw_minutes
                0x0000000010007ce4       0x7c examples/libexamples.a(LCD_2in_test.c.obj)
                0x0000000010007ce4                draw_minutes
 .text.draw_hours
                0x0000000010007d60       0x74 examples/libexamples.a(LCD_2in_test.c.obj)
                0x0000000010007d60                draw_hours
 .text.draw_clock
                0x0000000010007dd4      0x33c examples/libexamples.a(LCD_2in_test.c.obj)
                0x0000000010007dd4                draw_clock
 .text.LCD_2in_test
                0x0000000010008110      0x18c examples/libexamples.a(LCD_2in_test.c.obj)
                0x0000000010008110                LCD_2in_test
 .text.LCD_2IN_Reset
                0x000000001000829c       0x2e lib/LCD/libLCD.a(LCD_2in.c.obj)
 .text.LCD_2IN_SendCommand
                0x00000000100082ca       0x24 lib/LCD/libLCD.a(LCD_2in.c.obj)
 .text.LCD_2IN_SendData_8Bit
                0x00000000100082ee       0x24 lib/LCD/libLCD.a(LCD_2in.c.obj)
 *fill*         0x0000000010008312        0x2 
 .text.LCD_2IN_SetAttributes
                0x0000000010008314       0x38 lib/LCD/libLCD.a(LCD_2in.c.obj)
 .text.LCD_2IN_InitReg
                0x000000001000834c      0x1ae lib/LCD/libLCD.a(LCD_2in.c.obj)
 .text.LCD_2IN_Init
                0x00000000100084fa       0x1a lib/LCD/libLCD.a(LCD_2in.c.obj)
                0x00000000100084fa                LCD_2IN_Init
 .text.LCD_2IN_SetWindows
                0x0000000010008514       0x5e lib/LCD/libLCD.a(LCD_2in.c.obj)
                0x0000000010008514                LCD_2IN_SetWindows
 .text.LCD_2IN_Clear
                0x0000000010008572       0x60 lib/LCD/libLCD.a(LCD_2in.c.obj)
                0x0000000010008572                LCD_2IN_Clear
 *fill*         0x00000000100085d2        0x2 
 .text.LCD_2IN_Display
                0x00000000100085d4       0x58 lib/LCD/libLCD.a(LCD_2in.c.obj)
                0x00000000100085d4                LCD_2IN_Display
 .text.SET_Infrared_PIN
                0x000000001000862c       0x20 lib/Infrared/libInfrared.a(Infrared.c.obj)
                0x000000001000862c                SET_Infrared_PIN
 .text.Paint_NewImage
                0x000000001000864c       0x48 lib/GUI/libGUI.a(GUI_Paint.c.obj)
                0x000000001000864c                Paint_NewImage
 .text.Paint_SetRotate
                0x0000000010008694       0x20 lib/GUI/libGUI.a(GUI_Paint.c.obj)
                0x0000000010008694                Paint_SetRotate
 .text.Paint_SetScale
                0x00000000100086b4       0x68 lib/GUI/libGUI.a(GUI_Paint.c.obj)
                0x00000000100086b4                Paint_SetScale
 .text.Paint_SetPixel
                0x000000001000871c      0x164 lib/GUI/libGUI.a(GUI_Paint.c.obj)
                0x000000001000871c                Paint_SetPixel
 .text.Paint_Clear
                0x0000000010008880       0xb0 lib/GUI/libGUI.a(GUI_Paint.c.obj)
                0x0000000010008880                Paint_Clear
 .text.Paint_DrawPoint
                0x0000000010008930       0xc0 lib/GUI/libGUI.a(GUI_Paint.c.obj)
                0x0000000010008930                Paint_DrawPoint
 .text.Paint_DrawLine
                0x00000000100089f0      0x12c lib/GUI/libGUI.a(GUI_Paint.c.obj)
                0x00000000100089f0                Paint_DrawLine
 .text.Paint_DrawCircle
                0x0000000010008b1c      0x274 lib/GUI/libGUI.a(GUI_Paint.c.obj)
                0x0000000010008b1c                Paint_DrawCircle
 .text.Paint_DrawChar
                0x0000000010008d90       0xe8 lib/GUI/libGUI.a(GUI_Paint.c.obj)
                0x0000000010008d90                Paint_DrawChar
 .text.Paint_DrawString_EN
                0x0000000010008e78       0x88 lib/GUI/libGUI.a(GUI_Paint.c.obj)
                0x0000000010008e78                Paint_DrawString_EN
 .text.DEV_Digital_Write
                0x0000000010008f00       0x18 lib/Config/libConfig.a(DEV_Config.c.obj)
                0x0000000010008f00                DEV_Digital_Write
 .text.DEV_Digital_Read
                0x0000000010008f18        0xe lib/Config/libConfig.a(DEV_Config.c.obj)
                0x0000000010008f18                DEV_Digital_Read
 *fill*         0x0000000010008f26        0x2 
 .text.DEV_SPI_WriteByte
                0x0000000010008f28       0x1c lib/Config/libConfig.a(DEV_Config.c.obj)
                0x0000000010008f28                DEV_SPI_WriteByte
 .text.DEV_SPI_Write_nByte
                0x0000000010008f44       0x14 lib/Config/libConfig.a(DEV_Config.c.obj)
                0x0000000010008f44                DEV_SPI_Write_nByte
 .text.DEV_GPIO_Mode
                0x0000000010008f58       0x26 lib/Config/libConfig.a(DEV_Config.c.obj)
                0x0000000010008f58                DEV_GPIO_Mode
 .text.DEV_Delay_ms
                0x0000000010008f7e        0x8 lib/Config/libConfig.a(DEV_Config.c.obj)
                0x0000000010008f7e                DEV_Delay_ms
 .text.DEV_Delay_us
                0x0000000010008f86        0xa lib/Config/libConfig.a(DEV_Config.c.obj)
                0x0000000010008f86                DEV_Delay_us
 .text.DEV_GPIO_Init
                0x0000000010008f90       0x4c lib/Config/libConfig.a(DEV_Config.c.obj)
                0x0000000010008f90                DEV_GPIO_Init
 .text.DEV_Module_Init
                0x0000000010008fdc       0xcc lib/Config/libConfig.a(DEV_Config.c.obj)
                0x0000000010008fdc                DEV_Module_Init
 .text.DEV_SET_PWM
                0x00000000100090a8       0x40 lib/Config/libConfig.a(DEV_Config.c.obj)
                0x00000000100090a8                DEV_SET_PWM
 .text          0x00000000100090e8       0x28 /usr/lib/gcc/arm-none-eabi/9.2.1/../../../arm-none-eabi/lib/thumb/v6-m/nofp/libg.a(lib_a-malloc.o)
                0x00000000100090e8                malloc
                0x00000000100090fc                free
 .text          0x0000000010009110      0x574 /usr/lib/gcc/arm-none-eabi/9.2.1/../../../arm-none-eabi/lib/thumb/v6-m/nofp/libg.a(lib_a-mallocr.o)
                0x0000000010009110                _malloc_r
 .text          0x0000000010009684        0x8 /usr/lib/gcc/arm-none-eabi/9.2.1/../../../arm-none-eabi/lib/thumb/v6-m/nofp/libg.a(lib_a-mlock.o)
                0x0000000010009684                __malloc_lock
                0x0000000010009688                __malloc_unlock
 .text          0x000000001000968c       0x24 /usr/lib/gcc/arm-none-eabi/9.2.1/../../../arm-none-eabi/lib/thumb/v6-m/nofp/libg.a(lib_a-sbrkr.o)
                0x000000001000968c                _sbrk_r
 .text          0x00000000100096b0       0x5c /usr/lib/gcc/arm-none-eabi/9.2.1/../../../arm-none-eabi/lib/thumb/v6-m/nofp/libg.a(lib_a-strlen-stub.o)
                0x00000000100096b0                strlen
 .text          0x000000001000970c      0x260 /usr/lib/gcc/arm-none-eabi/9.2.1/../../../arm-none-eabi/lib/thumb/v6-m/nofp/libg.a(lib_a-freer.o)
                0x000000001000970c                _malloc_trim_r
                0x00000000100097a8                _free_r
 *(.fini)
 .fini          0x000000001000996c        0x4 /usr/lib/gcc/arm-none-eabi/9.2.1/thumb/v6-m/nofp/crti.o
                0x000000001000996c                _fini
 .fini.__stub   0x0000000010009970       0x80 linker stubs
 *crtbegin.o(.ctors)
 *crtbegin?.o(.ctors)
 *(EXCLUDE_FILE(*crtend.o *crtend?.o) .ctors)
 *(SORT_BY_NAME(.ctors.*))
 *(.ctors)
 *crtbegin.o(.dtors)
 *crtbegin?.o(.dtors)
 *(EXCLUDE_FILE(*crtend.o *crtend?.o) .dtors)
 *(SORT_BY_NAME(.dtors.*))
 *(.dtors)
 *(.eh_frame*)
 .eh_frame      0x00000000100099f0        0x0 /usr/lib/gcc/arm-none-eabi/9.2.1/thumb/v6-m/nofp/crtbegin.o
                0x00000000100099f0                . = ALIGN (0x4)

.glue_7         0x00000000100099f0        0x0
 .glue_7        0x00000000100099f0        0x0 linker stubs

.glue_7t        0x00000000100099f0        0x0
 .glue_7t       0x00000000100099f0        0x0 linker stubs

.vfp11_veneer   0x00000000100099f0        0x0
 .vfp11_veneer  0x00000000100099f0        0x0 linker stubs

.v4_bx          0x00000000100099f0        0x0
 .v4_bx         0x00000000100099f0        0x0 linker stubs

.iplt           0x00000000100099f0        0x0
 .iplt          0x00000000100099f0        0x0 /usr/lib/gcc/arm-none-eabi/9.2.1/thumb/v6-m/nofp/crtbegin.o

.rodata         0x00000000100099f0     0x2538
 *(EXCLUDE_FILE(*libm.a: *libc.a:*lib_a-mem*.o *libgcc.a:) .rodata*)
 .rodata.main.str1.4
                0x00000000100099f0        0x9 CMakeFiles/main.dir/main.c.obj
 *fill*         0x00000000100099f9        0x3 
 .rodata.spin_lock_claim_unused.str1.4
                0x00000000100099fc       0x1b CMakeFiles/main.dir/home/iwo/pico/pico-sdk/src/rp2_common/hardware_sync/sync.c.obj
 *fill*         0x0000000010009a17        0x1 
 .rodata.repeating_timer_callback.str1.4
                0x0000000010009a18       0x48 CMakeFiles/main.dir/home/iwo/pico/pico-sdk/src/common/pico_time/time.c.obj
 .rodata.alarm_pool_dump_key.str1.4
                0x0000000010009a60       0x33 CMakeFiles/main.dir/home/iwo/pico/pico-sdk/src/common/pico_time/time.c.obj
 *fill*         0x0000000010009a93        0x1 
 .rodata.ph_add_child_node.str1.4
                0x0000000010009a94       0x92 CMakeFiles/main.dir/home/iwo/pico/pico-sdk/src/common/pico_time/time.c.obj
 *fill*         0x0000000010009b26        0x2 
 .rodata.add_alarm_under_lock.str1.4
                0x0000000010009b28       0x28 CMakeFiles/main.dir/home/iwo/pico/pico-sdk/src/common/pico_time/time.c.obj
                                         0x2b (size before relaxing)
 .rodata.alarm_pool_alarm_callback.str1.4
                0x0000000010009b50       0xe2 CMakeFiles/main.dir/home/iwo/pico/pico-sdk/src/common/pico_time/time.c.obj
 *fill*         0x0000000010009c32        0x2 
 .rodata.alarm_pool_get_default.str1.4
                0x0000000010009c34       0x21 CMakeFiles/main.dir/home/iwo/pico/pico-sdk/src/common/pico_time/time.c.obj
 *fill*         0x0000000010009c55        0x3 
 .rodata.alarm_pool_cancel_alarm.str1.4
                0x0000000010009c58       0x27 CMakeFiles/main.dir/home/iwo/pico/pico-sdk/src/common/pico_time/time.c.obj
 *fill*         0x0000000010009c7f        0x1 
 .rodata.sleep_until.str1.4
                0x0000000010009c80       0x4d CMakeFiles/main.dir/home/iwo/pico/pico-sdk/src/common/pico_time/time.c.obj
 *fill*         0x0000000010009ccd        0x3 
 .rodata.__func__.5701
                0x0000000010009cd0       0x15 CMakeFiles/main.dir/home/iwo/pico/pico-sdk/src/common/pico_time/time.c.obj
 *fill*         0x0000000010009ce5        0x3 
 .rodata.__func__.6007
                0x0000000010009ce8        0xc CMakeFiles/main.dir/home/iwo/pico/pico-sdk/src/common/pico_time/time.c.obj
 .rodata.__func__.6014
                0x0000000010009cf4       0x12 CMakeFiles/main.dir/home/iwo/pico/pico-sdk/src/common/pico_time/time.c.obj
 *fill*         0x0000000010009d06        0x2 
 .rodata.__func__.6030
                0x0000000010009d08        0xf CMakeFiles/main.dir/home/iwo/pico/pico-sdk/src/common/pico_time/time.c.obj
 *fill*         0x0000000010009d17        0x1 
 .rodata.__func__.6052
                0x0000000010009d18        0xd CMakeFiles/main.dir/home/iwo/pico/pico-sdk/src/common/pico_time/time.c.obj
 *fill*         0x0000000010009d25        0x3 
 .rodata.__func__.6276
                0x0000000010009d28        0xa CMakeFiles/main.dir/home/iwo/pico/pico-sdk/src/common/pico_time/time.c.obj
 *fill*         0x0000000010009d32        0x2 
 .rodata.__func__.6281
                0x0000000010009d34       0x12 CMakeFiles/main.dir/home/iwo/pico/pico-sdk/src/common/pico_time/time.c.obj
 *fill*         0x0000000010009d46        0x2 
 .rodata.__func__.6296
                0x0000000010009d48       0x17 CMakeFiles/main.dir/home/iwo/pico/pico-sdk/src/common/pico_time/time.c.obj
 *fill*         0x0000000010009d5f        0x1 
 .rodata.__func__.6307
                0x0000000010009d60       0x15 CMakeFiles/main.dir/home/iwo/pico/pico-sdk/src/common/pico_time/time.c.obj
 *fill*         0x0000000010009d75        0x3 
 .rodata.__func__.6324
                0x0000000010009d78       0x1a CMakeFiles/main.dir/home/iwo/pico/pico-sdk/src/common/pico_time/time.c.obj
 *fill*         0x0000000010009d92        0x2 
 .rodata.__func__.6363
                0x0000000010009d94       0x18 CMakeFiles/main.dir/home/iwo/pico/pico-sdk/src/common/pico_time/time.c.obj
 .rodata.hardware_alarm_claim.str1.4
                0x0000000010009dac       0x22 CMakeFiles/main.dir/home/iwo/pico/pico-sdk/src/rp2_common/hardware_timer/timer.c.obj
 *fill*         0x0000000010009dce        0x2 
 .rodata.hardware_alarm_set_target.str1.4
                0x0000000010009dd0       0x62 CMakeFiles/main.dir/home/iwo/pico/pico-sdk/src/rp2_common/hardware_timer/timer.c.obj
 *fill*         0x0000000010009e32        0x2 
 .rodata.__func__.4559
                0x0000000010009e34       0x1a CMakeFiles/main.dir/home/iwo/pico/pico-sdk/src/rp2_common/hardware_timer/timer.c.obj
 *fill*         0x0000000010009e4e        0x2 
 .rodata.str1.4
                0x0000000010009e50       0x89 CMakeFiles/main.dir/home/iwo/pico/pico-sdk/src/common/pico_sync/mutex.c.obj
                                         0xe9 (size before relaxing)
 *fill*         0x0000000010009ed9        0x3 
 .rodata.__func__.4193
                0x0000000010009edc       0x15 CMakeFiles/main.dir/home/iwo/pico/pico-sdk/src/common/pico_sync/mutex.c.obj
 *fill*         0x0000000010009ef1        0x3 
 .rodata.__func__.4681
                0x0000000010009ef4       0x18 CMakeFiles/main.dir/home/iwo/pico/pico-sdk/src/common/pico_sync/mutex.c.obj
 .rodata.__func__.4700
                0x0000000010009f0c        0xb CMakeFiles/main.dir/home/iwo/pico/pico-sdk/src/common/pico_sync/mutex.c.obj
 .rodata.ph_add_child_node.str1.4
                0x0000000010009f17       0x92 CMakeFiles/main.dir/home/iwo/pico/pico-sdk/src/common/pico_util/pheap.c.obj
 *fill*         0x0000000010009f17        0x1 
 .rodata.ph_remove_any_head.str1.4
                0x0000000010009f18       0x8c CMakeFiles/main.dir/home/iwo/pico/pico-sdk/src/common/pico_util/pheap.c.obj
 .rodata.ph_remove_and_free_node.str1.4
                0x0000000010009fa4       0x26 CMakeFiles/main.dir/home/iwo/pico/pico-sdk/src/common/pico_util/pheap.c.obj
 *fill*         0x0000000010009fca        0x2 
 .rodata.__func__.5708
                0x0000000010009fcc        0xc CMakeFiles/main.dir/home/iwo/pico/pico-sdk/src/common/pico_util/pheap.c.obj
 .rodata.__func__.5715
                0x0000000010009fd8       0x12 CMakeFiles/main.dir/home/iwo/pico/pico-sdk/src/common/pico_util/pheap.c.obj
 *fill*         0x0000000010009fea        0x2 
 .rodata.__func__.5801
                0x0000000010009fec       0x13 CMakeFiles/main.dir/home/iwo/pico/pico-sdk/src/common/pico_util/pheap.c.obj
 *fill*         0x0000000010009fff        0x1 
 .rodata.__func__.5819
                0x000000001000a000       0x18 CMakeFiles/main.dir/home/iwo/pico/pico-sdk/src/common/pico_util/pheap.c.obj
 .rodata.__assert_func.str1.4
                0x000000001000a018       0x3f CMakeFiles/main.dir/home/iwo/pico/pico-sdk/src/rp2_common/pico_runtime/runtime.c.obj
                                         0x43 (size before relaxing)
 *fill*         0x000000001000a057        0x1 
 .rodata.runtime_init.str1.4
                0x000000001000a058       0x5e CMakeFiles/main.dir/home/iwo/pico/pico-sdk/src/rp2_common/pico_runtime/runtime.c.obj
 *fill*         0x000000001000a0b6        0x2 
 .rodata.panic.str1.4
                0x000000001000a0b8       0x12 CMakeFiles/main.dir/home/iwo/pico/pico-sdk/src/rp2_common/pico_runtime/runtime.c.obj
 *fill*         0x000000001000a0ca        0x2 
 .rodata.__func__.5816
                0x000000001000a0cc        0xd CMakeFiles/main.dir/home/iwo/pico/pico-sdk/src/rp2_common/pico_runtime/runtime.c.obj
 *fill*         0x000000001000a0d9        0x3 
 .rodata.clock_configure.str1.4
                0x000000001000a0dc       0x54 CMakeFiles/main.dir/home/iwo/pico/pico-sdk/src/rp2_common/hardware_clocks/clocks.c.obj
 .rodata.__func__.4688
                0x000000001000a130       0x10 CMakeFiles/main.dir/home/iwo/pico/pico-sdk/src/rp2_common/hardware_clocks/clocks.c.obj
 .rodata.make_branch.str1.4
                0x000000001000a140       0x4a CMakeFiles/main.dir/home/iwo/pico/pico-sdk/src/rp2_common/hardware_irq/irq.c.obj
 *fill*         0x000000001000a18a        0x2 
 .rodata.irq_set_exclusive_handler.str1.4
                0x000000001000a18c       0x36 CMakeFiles/main.dir/home/iwo/pico/pico-sdk/src/rp2_common/hardware_irq/irq.c.obj
 *fill*         0x000000001000a1c2        0x2 
 .rodata.irq_add_shared_handler.str1.4
                0x000000001000a1c4       0xd9 CMakeFiles/main.dir/home/iwo/pico/pico-sdk/src/rp2_common/hardware_irq/irq.c.obj
 *fill*         0x000000001000a29d        0x3 
 .rodata.irq_remove_handler.str1.4
                0x000000001000a2a0       0x2a CMakeFiles/main.dir/home/iwo/pico/pico-sdk/src/rp2_common/hardware_irq/irq.c.obj
 *fill*         0x000000001000a2ca        0x2 
 .rodata.irq_add_tail_to_free_list.str1.4
                0x000000001000a2cc       0x32 CMakeFiles/main.dir/home/iwo/pico/pico-sdk/src/rp2_common/hardware_irq/irq.c.obj
                                         0x3a (size before relaxing)
 *fill*         0x000000001000a2fe        0x2 
 .rodata.__func__.4733
                0x000000001000a300       0x1a CMakeFiles/main.dir/home/iwo/pico/pico-sdk/src/rp2_common/hardware_irq/irq.c.obj
 *fill*         0x000000001000a31a        0x2 
 .rodata.__func__.4747
                0x000000001000a31c        0xc CMakeFiles/main.dir/home/iwo/pico/pico-sdk/src/rp2_common/hardware_irq/irq.c.obj
 .rodata.__func__.4755
                0x000000001000a328       0x17 CMakeFiles/main.dir/home/iwo/pico/pico-sdk/src/rp2_common/hardware_irq/irq.c.obj
 *fill*         0x000000001000a33f        0x1 
 .rodata.__func__.4759
                0x000000001000a340        0xf CMakeFiles/main.dir/home/iwo/pico/pico-sdk/src/rp2_common/hardware_irq/irq.c.obj
 *fill*         0x000000001000a34f        0x1 
 .rodata.__func__.4798
                0x000000001000a350       0x13 CMakeFiles/main.dir/home/iwo/pico/pico-sdk/src/rp2_common/hardware_irq/irq.c.obj
 *fill*         0x000000001000a363        0x1 
 .rodata.__func__.4821
                0x000000001000a364       0x1a CMakeFiles/main.dir/home/iwo/pico/pico-sdk/src/rp2_common/hardware_irq/irq.c.obj
 *fill*         0x000000001000a37e        0x2 
 .rodata.pll_init.str1.4
                0x000000001000a380       0xd7 CMakeFiles/main.dir/home/iwo/pico/pico-sdk/src/rp2_common/hardware_pll/pll.c.obj
 *fill*         0x000000001000a457        0x1 
 .rodata.__func__.4408
                0x000000001000a458        0x9 CMakeFiles/main.dir/home/iwo/pico/pico-sdk/src/rp2_common/hardware_pll/pll.c.obj
 *fill*         0x000000001000a461        0x3 
 .rodata._ftoa.str1.4
                0x000000001000a464       0x15 CMakeFiles/main.dir/home/iwo/pico/pico-sdk/src/rp2_common/pico_printf/printf.c.obj
 *fill*         0x000000001000a479        0x3 
 .rodata._vsnprintf
                0x000000001000a47c      0x1e0 CMakeFiles/main.dir/home/iwo/pico/pico-sdk/src/rp2_common/pico_printf/printf.c.obj
 *fill*         0x000000001000a65c        0x4 
 .rodata.pow10.5422
                0x000000001000a660       0x50 CMakeFiles/main.dir/home/iwo/pico/pico-sdk/src/rp2_common/pico_printf/printf.c.obj
 .rodata.__aeabi_double_init.str1.4
                0x000000001000a6b0       0xa5 CMakeFiles/main.dir/home/iwo/pico/pico-sdk/src/rp2_common/pico_double/double_init_rom.c.obj
 *fill*         0x000000001000a755        0x3 
 .rodata.__func__.4719
                0x000000001000a758       0x14 CMakeFiles/main.dir/home/iwo/pico/pico-sdk/src/rp2_common/pico_double/double_init_rom.c.obj
 .rodata.__aeabi_float_init.str1.4
                0x000000001000a76c       0x77 CMakeFiles/main.dir/home/iwo/pico/pico-sdk/src/rp2_common/pico_float/float_init_rom.c.obj
                                         0x7b (size before relaxing)
 *fill*         0x000000001000a7e3        0x1 
 .rodata.__func__.4720
                0x000000001000a7e4       0x13 CMakeFiles/main.dir/home/iwo/pico/pico-sdk/src/rp2_common/pico_float/float_init_rom.c.obj
 *fill*         0x000000001000a7f7        0x1 
 .rodata.__wrap_malloc.str1.4
                0x000000001000a7f8        0xe CMakeFiles/main.dir/home/iwo/pico/pico-sdk/src/rp2_common/pico_malloc/pico_malloc.c.obj
 *fill*         0x000000001000a806        0x2 
 .rodata.str1.4
                0x000000001000a808       0x3c CMakeFiles/main.dir/home/iwo/pico/pico-sdk/src/rp2_common/pico_standard_link/binary_info.c.obj
 .rodata.__bi_44
                0x000000001000a844        0xc CMakeFiles/main.dir/home/iwo/pico/pico-sdk/src/rp2_common/pico_standard_link/binary_info.c.obj
 .rodata.__bi_75
                0x000000001000a850        0xc CMakeFiles/main.dir/home/iwo/pico/pico-sdk/src/rp2_common/pico_standard_link/binary_info.c.obj
 .rodata.__bi_81
                0x000000001000a85c        0xc CMakeFiles/main.dir/home/iwo/pico/pico-sdk/src/rp2_common/pico_standard_link/binary_info.c.obj
 .rodata.crlf_str.5901
                0x000000001000a868        0x2 CMakeFiles/main.dir/home/iwo/pico/pico-sdk/src/rp2_common/pico_stdio/stdio.c.obj
 *fill*         0x000000001000a86a        0x2 
 .rodata._resetd_driver
                0x000000001000a86c       0x18 CMakeFiles/main.dir/home/iwo/pico/pico-sdk/src/rp2_common/pico_stdio_usb/reset_interface.c.obj
 .rodata.stdio_usb_init.str1.4
                0x000000001000a884       0x5e CMakeFiles/main.dir/home/iwo/pico/pico-sdk/src/rp2_common/pico_stdio_usb/stdio_usb.c.obj
 .rodata.str1.4
                0x000000001000a884       0x13 CMakeFiles/main.dir/home/iwo/pico/pico-sdk/src/rp2_common/pico_stdio_usb/stdio_usb.c.obj
 *fill*         0x000000001000a897        0x1 
 .rodata.__bi_93.7216
                0x000000001000a898        0xc CMakeFiles/main.dir/home/iwo/pico/pico-sdk/src/rp2_common/pico_stdio_usb/stdio_usb.c.obj
 .rodata.__func__.5424
                0x000000001000a8a4       0x15 CMakeFiles/main.dir/home/iwo/pico/pico-sdk/src/rp2_common/pico_stdio_usb/stdio_usb.c.obj
 *fill*         0x000000001000a8b9        0x3 
 .rodata.str1.4
                0x000000001000a8bc       0x2a CMakeFiles/main.dir/home/iwo/pico/pico-sdk/src/rp2_common/pico_stdio_usb/stdio_usb_descriptors.c.obj
 *fill*         0x000000001000a8e6        0x2 
 .rodata.usbd_desc_cfg
                0x000000001000a8e8       0x54 CMakeFiles/main.dir/home/iwo/pico/pico-sdk/src/rp2_common/pico_stdio_usb/stdio_usb_descriptors.c.obj
 .rodata.usbd_desc_device
                0x000000001000a93c       0x12 CMakeFiles/main.dir/home/iwo/pico/pico-sdk/src/rp2_common/pico_stdio_usb/stdio_usb_descriptors.c.obj
 *fill*         0x000000001000a94e        0x2 
 .rodata.usbd_desc_str
                0x000000001000a950       0x18 CMakeFiles/main.dir/home/iwo/pico/pico-sdk/src/rp2_common/pico_stdio_usb/stdio_usb_descriptors.c.obj
 .rodata._hw_endpoint_alloc.str1.4
                0x000000001000a968       0xb5 CMakeFiles/main.dir/home/iwo/pico/pico-sdk/lib/tinyusb/src/portable/raspberrypi/rp2040/dcd_rp2040.c.obj
 *fill*         0x000000001000aa1d        0x3 
 .rodata.dcd_rp2040_irq.str1.4
                0x000000001000aa20       0x14 CMakeFiles/main.dir/home/iwo/pico/pico-sdk/lib/tinyusb/src/portable/raspberrypi/rp2040/dcd_rp2040.c.obj
 .rodata.dcd_int_enable.str1.4
                0x000000001000aa34        0xc CMakeFiles/main.dir/home/iwo/pico/pico-sdk/lib/tinyusb/src/portable/raspberrypi/rp2040/dcd_rp2040.c.obj
 .rodata.__func__.6888
                0x000000001000aa40       0x13 CMakeFiles/main.dir/home/iwo/pico/pico-sdk/lib/tinyusb/src/portable/raspberrypi/rp2040/dcd_rp2040.c.obj
 *fill*         0x000000001000aa53        0x1 
 .rodata.__func__.6941
                0x000000001000aa54        0x9 CMakeFiles/main.dir/home/iwo/pico/pico-sdk/lib/tinyusb/src/portable/raspberrypi/rp2040/dcd_rp2040.c.obj
 *fill*         0x000000001000aa5d        0x3 
 .rodata.__func__.6945
                0x000000001000aa60        0xf CMakeFiles/main.dir/home/iwo/pico/pico-sdk/lib/tinyusb/src/portable/raspberrypi/rp2040/dcd_rp2040.c.obj
 *fill*         0x000000001000aa6f        0x1 
 .rodata.__func__.6954
                0x000000001000aa70       0x10 CMakeFiles/main.dir/home/iwo/pico/pico-sdk/lib/tinyusb/src/portable/raspberrypi/rp2040/dcd_rp2040.c.obj
 .rodata.__func__.6973
                0x000000001000aa80        0xe CMakeFiles/main.dir/home/iwo/pico/pico-sdk/lib/tinyusb/src/portable/raspberrypi/rp2040/dcd_rp2040.c.obj
 *fill*         0x000000001000aa8e        0x2 
 .rodata.__func__.6983
                0x000000001000aa90        0xe CMakeFiles/main.dir/home/iwo/pico/pico-sdk/lib/tinyusb/src/portable/raspberrypi/rp2040/dcd_rp2040.c.obj
 *fill*         0x000000001000aa9e        0x2 
 .rodata.sync_ep_buffer.str1.4
                0x000000001000aaa0       0x91 CMakeFiles/main.dir/home/iwo/pico/pico-sdk/lib/tinyusb/src/portable/raspberrypi/rp2040/rp2040_usb.c.obj
 *fill*         0x000000001000ab31        0x3 
 .rodata._hw_endpoint_buffer_control_update32.str1.4
                0x000000001000ab34       0x1f CMakeFiles/main.dir/home/iwo/pico/pico-sdk/lib/tinyusb/src/portable/raspberrypi/rp2040/rp2040_usb.c.obj
 *fill*         0x000000001000ab53        0x1 
 .rodata.hw_endpoint_xfer_start.str1.4
                0x000000001000ab54       0x38 CMakeFiles/main.dir/home/iwo/pico/pico-sdk/lib/tinyusb/src/portable/raspberrypi/rp2040/rp2040_usb.c.obj
 .rodata.hw_endpoint_xfer_continue.str1.4
                0x000000001000ab8c       0x29 CMakeFiles/main.dir/home/iwo/pico/pico-sdk/lib/tinyusb/src/portable/raspberrypi/rp2040/rp2040_usb.c.obj
 *fill*         0x000000001000abb5        0x3 
 .rodata.str1.4
                0x000000001000abb8        0x7 CMakeFiles/main.dir/home/iwo/pico/pico-sdk/lib/tinyusb/src/portable/raspberrypi/rp2040/rp2040_usb.c.obj
 *fill*         0x000000001000abbf        0x1 
 .rodata.__func__.6655
                0x000000001000abc0        0xf CMakeFiles/main.dir/home/iwo/pico/pico-sdk/lib/tinyusb/src/portable/raspberrypi/rp2040/rp2040_usb.c.obj
 *fill*         0x000000001000abcf        0x1 
 .rodata.process_set_config.str1.4
                0x000000001000abd0       0x17 CMakeFiles/main.dir/home/iwo/pico/pico-sdk/lib/tinyusb/src/device/usbd.c.obj
 *fill*         0x000000001000abe7        0x1 
 .rodata.process_get_descriptor
                0x000000001000abe8       0x40 CMakeFiles/main.dir/home/iwo/pico/pico-sdk/lib/tinyusb/src/device/usbd.c.obj
 .rodata.process_control_request
                0x000000001000ac28       0x28 CMakeFiles/main.dir/home/iwo/pico/pico-sdk/lib/tinyusb/src/device/usbd.c.obj
 .rodata.tud_task
                0x000000001000ac50       0x24 CMakeFiles/main.dir/home/iwo/pico/pico-sdk/lib/tinyusb/src/device/usbd.c.obj
 .rodata.__func__.6564
                0x000000001000ac74       0x10 CMakeFiles/main.dir/home/iwo/pico/pico-sdk/lib/tinyusb/src/device/usbd.c.obj
 .rodata.__func__.7362
                0x000000001000ac84        0x9 CMakeFiles/main.dir/home/iwo/pico/pico-sdk/lib/tinyusb/src/device/usbd.c.obj
 *fill*         0x000000001000ac8d        0x3 
 .rodata.__func__.7383
                0x000000001000ac90       0x18 CMakeFiles/main.dir/home/iwo/pico/pico-sdk/lib/tinyusb/src/device/usbd.c.obj
 .rodata.__func__.7426
                0x000000001000aca8       0x13 CMakeFiles/main.dir/home/iwo/pico/pico-sdk/lib/tinyusb/src/device/usbd.c.obj
 *fill*         0x000000001000acbb        0x1 
 .rodata.__func__.7461
                0x000000001000acbc       0x17 CMakeFiles/main.dir/home/iwo/pico/pico-sdk/lib/tinyusb/src/device/usbd.c.obj
 *fill*         0x000000001000acd3        0x1 
 .rodata.__func__.7515
                0x000000001000acd4       0x14 CMakeFiles/main.dir/home/iwo/pico/pico-sdk/lib/tinyusb/src/device/usbd.c.obj
 .rodata.__func__.7529
                0x000000001000ace8        0xf CMakeFiles/main.dir/home/iwo/pico/pico-sdk/lib/tinyusb/src/device/usbd.c.obj
 *fill*         0x000000001000acf7        0x1 
 .rodata.__func__.7552
                0x000000001000acf8        0xf CMakeFiles/main.dir/home/iwo/pico/pico-sdk/lib/tinyusb/src/device/usbd.c.obj
 *fill*         0x000000001000ad07        0x1 
 .rodata._usbd_driver
                0x000000001000ad08       0x18 CMakeFiles/main.dir/home/iwo/pico/pico-sdk/lib/tinyusb/src/device/usbd.c.obj
 .rodata.tud_control_xfer.str1.4
                0x000000001000ad20       0x17 CMakeFiles/main.dir/home/iwo/pico/pico-sdk/lib/tinyusb/src/device/usbd_control.c.obj
 .rodata.__func__.7277
                0x000000001000ad20       0x11 CMakeFiles/main.dir/home/iwo/pico/pico-sdk/lib/tinyusb/src/device/usbd_control.c.obj
 *fill*         0x000000001000ad31        0x3 
 .rodata.__func__.7304
                0x000000001000ad34       0x15 CMakeFiles/main.dir/home/iwo/pico/pico-sdk/lib/tinyusb/src/device/usbd_control.c.obj
 .rodata.tud_cdc_n_write_flush.str1.4
                0x000000001000ad49       0x17 CMakeFiles/main.dir/home/iwo/pico/pico-sdk/lib/tinyusb/src/class/cdc/cdc_device.c.obj
 *fill*         0x000000001000ad49        0x3 
 .rodata.__func__.7213
                0x000000001000ad4c       0x16 CMakeFiles/main.dir/home/iwo/pico/pico-sdk/lib/tinyusb/src/class/cdc/cdc_device.c.obj
 *fill*         0x000000001000ad62        0x2 
 .rodata.__func__.7246
                0x000000001000ad64        0xa CMakeFiles/main.dir/home/iwo/pico/pico-sdk/lib/tinyusb/src/class/cdc/cdc_device.c.obj
 *fill*         0x000000001000ad6e        0x2 
 .rodata.__func__.7281
                0x000000001000ad70        0xd CMakeFiles/main.dir/home/iwo/pico/pico-sdk/lib/tinyusb/src/class/cdc/cdc_device.c.obj
 .rodata.tusb_init.str1.4
                0x000000001000ad7d       0x17 CMakeFiles/main.dir/home/iwo/pico/pico-sdk/lib/tinyusb/src/tusb.c.obj
 *fill*         0x000000001000ad7d        0x3 
 .rodata.__func__.7150
                0x000000001000ad80        0xa CMakeFiles/main.dir/home/iwo/pico/pico-sdk/lib/tinyusb/src/tusb.c.obj
 *fill*         0x000000001000ad8a        0x2 
 .rodata.__func__.7162
                0x000000001000ad8c       0x11 CMakeFiles/main.dir/home/iwo/pico/pico-sdk/lib/tinyusb/src/tusb.c.obj
 *fill*         0x000000001000ad9d        0x3 
 .rodata.pico_get_unique_board_id_string.str1.4
                0x000000001000ada0       0x4a CMakeFiles/main.dir/home/iwo/pico/pico-sdk/src/rp2_common/pico_unique_id/unique_id.c.obj
 *fill*         0x000000001000adea        0x2 
 .rodata.__func__.4287
                0x000000001000adec       0x20 CMakeFiles/main.dir/home/iwo/pico/pico-sdk/src/rp2_common/pico_unique_id/unique_id.c.obj
 .rodata.str1.4
                0x000000001000ae0c      0x156 CMakeFiles/main.dir/home/iwo/pico/pico-sdk/src/rp2_common/hardware_flash/flash.c.obj
 *fill*         0x000000001000af62        0x2 
 .rodata.__func__.4461
                0x000000001000af64        0xd CMakeFiles/main.dir/home/iwo/pico/pico-sdk/src/rp2_common/hardware_flash/flash.c.obj
 *fill*         0x000000001000af71        0x3 
 .rodata.i2c_set_baudrate.str1.4
                0x000000001000af74       0x5a CMakeFiles/main.dir/home/iwo/pico/pico-sdk/src/rp2_common/hardware_i2c/i2c.c.obj
 *fill*         0x000000001000afce        0x2 
 .rodata.__func__.4786
                0x000000001000afd0       0x11 CMakeFiles/main.dir/home/iwo/pico/pico-sdk/src/rp2_common/hardware_i2c/i2c.c.obj
 *fill*         0x000000001000afe1        0x3 
 .rodata.draw_clock.str1.4
                0x000000001000afe4       0x2b examples/libexamples.a(LCD_2in_test.c.obj)
                                         0x2f (size before relaxing)
 *fill*         0x000000001000b00f        0x1 
 .rodata.LCD_2in_test.str1.4
                0x000000001000b010       0x13 examples/libexamples.a(LCD_2in_test.c.obj)
 *fill*         0x000000001000b023        0x1 
 .rodata        0x000000001000b024      0xed8 lib/Fonts/libFonts.a(font20.c.obj)
                0x000000001000b024                Font20_Table
 .rodata.DEV_Module_Init.str1.4
                0x000000001000befc       0x15 lib/Config/libConfig.a(DEV_Config.c.obj)
 *fill*         0x000000001000bf11        0x3 
 .rodata.DEV_SET_PWM.str1.4
                0x000000001000bf14       0x14 lib/Config/libConfig.a(DEV_Config.c.obj)
                0x000000001000bf28                . = ALIGN (0x4)
 *(SORT_BY_ALIGNMENT(SORT_BY_NAME(.flashdata*)))
                0x000000001000bf28                . = ALIGN (0x4)

.rel.dyn        0x000000001000bf28        0x0
 .rel.iplt      0x000000001000bf28        0x0 /usr/lib/gcc/arm-none-eabi/9.2.1/thumb/v6-m/nofp/crtbegin.o

.ARM.extab
 *(.ARM.extab* .gnu.linkonce.armextab.*)
                0x000000001000bf28                __exidx_start = .

.ARM.exidx
 *(.ARM.exidx* .gnu.linkonce.armexidx.*)
                0x000000001000bf28                __exidx_end = .
                0x000000001000bf28                . = ALIGN (0x4)
                0x000000001000bf28                __binary_info_start = .

.binary_info    0x000000001000bf28       0x20
 *(.binary_info.keep.*)
 .binary_info.keep.__bi_ptr22
                0x000000001000bf28        0x4 CMakeFiles/main.dir/home/iwo/pico/pico-sdk/src/rp2_common/pico_standard_link/binary_info.c.obj
 .binary_info.keep.__bi_ptr30
                0x000000001000bf2c        0x4 CMakeFiles/main.dir/home/iwo/pico/pico-sdk/src/rp2_common/pico_standard_link/binary_info.c.obj
 .binary_info.keep.__bi_ptr38
                0x000000001000bf30        0x4 CMakeFiles/main.dir/home/iwo/pico/pico-sdk/src/rp2_common/pico_standard_link/binary_info.c.obj
 .binary_info.keep.__bi_ptr44
                0x000000001000bf34        0x4 CMakeFiles/main.dir/home/iwo/pico/pico-sdk/src/rp2_common/pico_standard_link/binary_info.c.obj
 .binary_info.keep.__bi_ptr50
                0x000000001000bf38        0x4 CMakeFiles/main.dir/home/iwo/pico/pico-sdk/src/rp2_common/pico_standard_link/binary_info.c.obj
 .binary_info.keep.__bi_ptr75
                0x000000001000bf3c        0x4 CMakeFiles/main.dir/home/iwo/pico/pico-sdk/src/rp2_common/pico_standard_link/binary_info.c.obj
 .binary_info.keep.__bi_ptr81
                0x000000001000bf40        0x4 CMakeFiles/main.dir/home/iwo/pico/pico-sdk/src/rp2_common/pico_standard_link/binary_info.c.obj
 *(.binary_info.*)
 .binary_info.__bi_ptr93
                0x000000001000bf44        0x4 CMakeFiles/main.dir/home/iwo/pico/pico-sdk/src/rp2_common/pico_stdio_usb/stdio_usb.c.obj
                0x000000001000bf48                __binary_info_end = .
                0x000000001000bf48                . = ALIGN (0x4)
                0x000000001000bf48                __etext = .

.ram_vector_table
                0x0000000020000000       0xc0
 *(.ram_vector_table)
 .ram_vector_table
                0x0000000020000000       0xc0 CMakeFiles/main.dir/home/iwo/pico/pico-sdk/src/rp2_common/pico_runtime/runtime.c.obj
                0x0000000020000000                ram_vector_table

.data           0x00000000200000c0      0xcf8 load address 0x000000001000bf48
                0x00000000200000c0                __data_start__ = .
 *(vtable)
 *(.time_critical*)
 .time_critical.mutex_enter_blocking
                0x00000000200000c0       0x48 CMakeFiles/main.dir/home/iwo/pico/pico-sdk/src/common/pico_sync/mutex.c.obj
                0x00000000200000c0                mutex_enter_blocking
 .time_critical.mutex_try_enter
                0x0000000020000108       0x48 CMakeFiles/main.dir/home/iwo/pico/pico-sdk/src/common/pico_sync/mutex.c.obj
                0x0000000020000108                mutex_try_enter
 .time_critical.mutex_enter_block_until
                0x0000000020000150       0x88 CMakeFiles/main.dir/home/iwo/pico/pico-sdk/src/common/pico_sync/mutex.c.obj
                0x0000000020000150                mutex_enter_block_until
 .time_critical.mutex_enter_timeout_ms
                0x00000000200001d8       0x78 CMakeFiles/main.dir/home/iwo/pico/pico-sdk/src/common/pico_sync/mutex.c.obj
                0x00000000200001d8                mutex_enter_timeout_ms
 .time_critical.mutex_exit
                0x0000000020000250       0x4c CMakeFiles/main.dir/home/iwo/pico/pico-sdk/src/common/pico_sync/mutex.c.obj
                0x0000000020000250                mutex_exit
 .time_critical.flash_init_boot2_copyout
                0x000000002000029c       0x30 CMakeFiles/main.dir/home/iwo/pico/pico-sdk/src/rp2_common/hardware_flash/flash.c.obj
 .time_critical.flash_enable_xip_via_boot2
                0x00000000200002cc       0x10 CMakeFiles/main.dir/home/iwo/pico/pico-sdk/src/rp2_common/hardware_flash/flash.c.obj
 .time_critical.flash_cs_force
                0x00000000200002dc       0x28 CMakeFiles/main.dir/home/iwo/pico/pico-sdk/src/rp2_common/hardware_flash/flash.c.obj
 .time_critical.flash_do_cmd
                0x0000000020000304       0xd8 CMakeFiles/main.dir/home/iwo/pico/pico-sdk/src/rp2_common/hardware_flash/flash.c.obj
                0x0000000020000304                flash_do_cmd
 .time_critical.spi_write_blocking
                0x00000000200003dc       0x3a CMakeFiles/main.dir/home/iwo/pico/pico-sdk/src/rp2_common/hardware_spi/spi.c.obj
                0x00000000200003dc                spi_write_blocking
 *(.text*)
 *fill*         0x0000000020000416        0x2 
 .text          0x0000000020000418        0x4 /usr/lib/gcc/arm-none-eabi/9.2.1/thumb/v6-m/nofp/libgcc.a(_dvmd_tls.o)
                0x0000000020000418                __aeabi_ldiv0
                0x0000000020000418                __aeabi_idiv0
 *fill*         0x000000002000041c        0x4 
 .text.__stub   0x0000000020000420       0x40 linker stubs
                0x0000000020000460                . = ALIGN (0x4)
 *(.rodata*)
                0x0000000020000460                . = ALIGN (0x4)
 *(.data*)
 .data.striped_spin_lock_num
                0x0000000020000460        0x1 CMakeFiles/main.dir/home/iwo/pico/pico-sdk/src/rp2_common/hardware_sync/sync.c.obj
 *fill*         0x0000000020000461        0x3 
 .data.default_alarm_pool
                0x0000000020000464       0x18 CMakeFiles/main.dir/home/iwo/pico/pico-sdk/src/common/pico_time/time.c.obj
 .data.default_alarm_pool_heap
                0x000000002000047c       0x10 CMakeFiles/main.dir/home/iwo/pico/pico-sdk/src/common/pico_time/time.c.obj
 .data          0x000000002000048c       0x48 CMakeFiles/main.dir/home/iwo/pico/pico-sdk/src/rp2_common/hardware_irq/irq_handler_chain.S.obj
                0x000000002000048c                irq_handler_chain_slots
                0x00000000200004bc                irq_handler_chain_first_slot
                0x00000000200004c6                irq_handler_chain_remove_tail
 *fill*         0x00000000200004d4        0xc 
 .data.aeabi_bits_funcs
                0x00000000200004e0       0x10 CMakeFiles/main.dir/home/iwo/pico/pico-sdk/src/rp2_common/pico_bit_ops/bit_ops_aeabi.S.obj
                0x00000000200004e0                aeabi_bits_funcs
                0x00000000200004f0                aeabi_bits_funcs_end
 .data.aeabi_mem_funcs
                0x00000000200004f0       0x10 CMakeFiles/main.dir/home/iwo/pico/pico-sdk/src/rp2_common/pico_mem_ops/mem_ops_aeabi.S.obj
                0x00000000200004f0                aeabi_mem_funcs
                0x0000000020000500                aeabi_mem_funcs_end
 .data.stdio_usb
                0x0000000020000500       0x14 CMakeFiles/main.dir/home/iwo/pico/pico-sdk/src/rp2_common/pico_stdio_usb/stdio_usb.c.obj
                0x0000000020000500                stdio_usb
 .data.ep_dir_string
                0x0000000020000514        0x8 CMakeFiles/main.dir/home/iwo/pico/pico-sdk/lib/tinyusb/src/portable/raspberrypi/rp2040/rp2040_usb.c.obj
                0x0000000020000514                ep_dir_string
 .data._usbd_qdef
                0x000000002000051c       0x24 CMakeFiles/main.dir/home/iwo/pico/pico-sdk/lib/tinyusb/src/device/usbd.c.obj
                0x000000002000051c                _usbd_qdef
 .data.i2c0_inst
                0x0000000020000540        0x8 CMakeFiles/main.dir/home/iwo/pico/pico-sdk/src/rp2_common/hardware_i2c/i2c.c.obj
                0x0000000020000540                i2c0_inst
 .data.i2c1_inst
                0x0000000020000548        0x8 CMakeFiles/main.dir/home/iwo/pico/pico-sdk/src/rp2_common/hardware_i2c/i2c.c.obj
                0x0000000020000548                i2c1_inst
 .data          0x0000000020000550        0x8 lib/Fonts/libFonts.a(font20.c.obj)
                0x0000000020000550                Font20
 .data          0x0000000020000558      0x430 /usr/lib/gcc/arm-none-eabi/9.2.1/../../../arm-none-eabi/lib/thumb/v6-m/nofp/libg.a(lib_a-impure.o)
                0x0000000020000558                _impure_ptr
 .data          0x0000000020000988      0x410 /usr/lib/gcc/arm-none-eabi/9.2.1/../../../arm-none-eabi/lib/thumb/v6-m/nofp/libg.a(lib_a-mallocr.o)
                0x0000000020000988                __malloc_sbrk_base
                0x000000002000098c                __malloc_trim_threshold
                0x0000000020000990                __malloc_av_
                0x0000000020000d98                . = ALIGN (0x4)
 *(.after_data.*)
                0x0000000020000d98                . = ALIGN (0x4)
                0x0000000020000d98                PROVIDE (__mutex_array_start = .)
 *(SORT_BY_NAME(.mutex_array.*))
 *(.mutex_array)
 .mutex_array   0x0000000020000d98        0x8 CMakeFiles/main.dir/home/iwo/pico/pico-sdk/src/rp2_common/pico_stdio/stdio.c.obj
                0x0000000020000da0                PROVIDE (__mutex_array_end = .)
                0x0000000020000da0                . = ALIGN (0x4)
                0x0000000020000da0                PROVIDE (__preinit_array_start = .)
 *(SORT_BY_NAME(.preinit_array.*))
 .preinit_array.00001
                0x0000000020000da0        0x4 CMakeFiles/main.dir/home/iwo/pico/pico-sdk/src/rp2_common/pico_mem_ops/mem_ops_aeabi.S.obj
 .preinit_array.00010
                0x0000000020000da4        0x4 CMakeFiles/main.dir/home/iwo/pico/pico-sdk/src/rp2_common/pico_bit_ops/bit_ops_aeabi.S.obj
 .preinit_array.00020
                0x0000000020000da8        0x4 CMakeFiles/main.dir/home/iwo/pico/pico-sdk/src/rp2_common/pico_double/double_aeabi.S.obj
 .preinit_array.00020
                0x0000000020000dac        0x4 CMakeFiles/main.dir/home/iwo/pico/pico-sdk/src/rp2_common/pico_float/float_aeabi.S.obj
 *(.preinit_array)
                0x0000000020000db0                PROVIDE (__preinit_array_end = .)
                0x0000000020000db0                . = ALIGN (0x4)
                0x0000000020000db0                PROVIDE (__init_array_start = .)
 *(SORT_BY_NAME(.init_array.*))
 *(.init_array)
 .init_array    0x0000000020000db0        0x4 /usr/lib/gcc/arm-none-eabi/9.2.1/thumb/v6-m/nofp/crtbegin.o
 .init_array    0x0000000020000db4        0x4 CMakeFiles/main.dir/home/iwo/pico/pico-sdk/src/rp2_common/pico_unique_id/unique_id.c.obj
                0x0000000020000db8                PROVIDE (__init_array_end = .)
                0x0000000020000db8                . = ALIGN (0x4)
                0x0000000020000db8                PROVIDE (__fini_array_start = .)
 *(SORT_BY_NAME(.fini_array.*))
 *(.fini_array)
                0x0000000020000db8                PROVIDE (__fini_array_end = .)
 *(.jcr)
                0x0000000020000db8                . = ALIGN (0x4)
                0x0000000020000db8                __data_end__ = .

.tm_clone_table
                0x0000000020000db8        0x0 load address 0x000000001000cc40
 .tm_clone_table
                0x0000000020000db8        0x0 /usr/lib/gcc/arm-none-eabi/9.2.1/thumb/v6-m/nofp/crtbegin.o
 .tm_clone_table
                0x0000000020000db8        0x0 /usr/lib/gcc/arm-none-eabi/9.2.1/thumb/v6-m/nofp/crtend.o

.igot.plt       0x0000000020000db8        0x0 load address 0x000000001000cc40
 .igot.plt      0x0000000020000db8        0x0 /usr/lib/gcc/arm-none-eabi/9.2.1/thumb/v6-m/nofp/crtbegin.o

.uninitialized_data
                0x0000000020000db8        0x0 load address 0x000000001000cc40
                0x0000000020000db8                . = ALIGN (0x4)
 *(.uninitialized_data*)

.scratch_x      0x0000000020040000        0x0 load address 0x000000001000cc40
                0x0000000020040000                __scratch_x_start__ = .
 *(.scratch_x.*)
                0x0000000020040000                . = ALIGN (0x4)
                0x0000000020040000                __scratch_x_end__ = .
                0x000000001000cc40                __scratch_x_source__ = LOADADDR (.scratch_x)

.scratch_y      0x0000000020041000        0x0 load address 0x000000001000cc40
                0x0000000020041000                __scratch_y_start__ = .
 *(.scratch_y.*)
                0x0000000020041000                . = ALIGN (0x4)
                0x0000000020041000                __scratch_y_end__ = .
                0x000000001000cc40                __scratch_y_source__ = LOADADDR (.scratch_y)

.bss            0x0000000020000db8      0xde0
                0x0000000020000db8                . = ALIGN (0x4)
                0x0000000020000db8                __bss_start__ = .
 *(SORT_BY_ALIGNMENT(SORT_BY_NAME(.bss*)))
 .bss.default_alarm_pool_entries
                0x0000000020000db8      0x100 CMakeFiles/main.dir/home/iwo/pico/pico-sdk/src/common/pico_time/time.c.obj
 .bss.last_avail_time.7195
                0x0000000020000eb8        0x8 CMakeFiles/main.dir/home/iwo/pico/pico-sdk/src/rp2_common/pico_stdio_usb/stdio_usb.c.obj
 .bss           0x0000000020000ec0       0x1c /usr/lib/gcc/arm-none-eabi/9.2.1/thumb/v6-m/nofp/crtbegin.o
 .bss           0x0000000020000edc       0x34 /usr/lib/gcc/arm-none-eabi/9.2.1/../../../arm-none-eabi/lib/thumb/v6-m/nofp/libg.a(lib_a-mallocr.o)
                0x0000000020000edc                __malloc_top_pad
                0x0000000020000ee0                __malloc_current_mallinfo
                0x0000000020000f08                __malloc_max_sbrked_mem
                0x0000000020000f0c                __malloc_max_total_mem
 .bss._app_driver
                0x0000000020000f10        0x4 CMakeFiles/main.dir/home/iwo/pico/pico-sdk/lib/tinyusb/src/device/usbd.c.obj
 .bss._cdcd_itf
                0x0000000020000f14      0x2d8 CMakeFiles/main.dir/home/iwo/pico/pico-sdk/lib/tinyusb/src/class/cdc/cdc_device.c.obj
 .bss._ctrl_xfer
                0x00000000200011ec       0x14 CMakeFiles/main.dir/home/iwo/pico/pico-sdk/lib/tinyusb/src/device/usbd_control.c.obj
 .bss._ubsd_mutexdef
                0x0000000020001200        0x8 CMakeFiles/main.dir/home/iwo/pico/pico-sdk/lib/tinyusb/src/device/usbd.c.obj
 .bss._usbd_ctrl_buf
                0x0000000020001208       0x40 CMakeFiles/main.dir/home/iwo/pico/pico-sdk/lib/tinyusb/src/device/usbd_control.c.obj
 .bss._usbd_dev
                0x0000000020001248       0x53 CMakeFiles/main.dir/home/iwo/pico/pico-sdk/lib/tinyusb/src/device/usbd.c.obj
 *fill*         0x000000002000129b        0x1 
 .bss._usbd_mutex
                0x000000002000129c        0x4 CMakeFiles/main.dir/home/iwo/pico/pico-sdk/lib/tinyusb/src/device/usbd.c.obj
 .bss._usbd_q   0x00000000200012a0        0x4 CMakeFiles/main.dir/home/iwo/pico/pico-sdk/lib/tinyusb/src/device/usbd.c.obj
 .bss.alarm_callbacks
                0x00000000200012a4       0x10 CMakeFiles/main.dir/home/iwo/pico/pico-sdk/src/rp2_common/hardware_timer/timer.c.obj
 .bss.boot2_copyout
                0x00000000200012b4      0x100 CMakeFiles/main.dir/home/iwo/pico/pico-sdk/src/rp2_common/hardware_flash/flash.c.obj
 .bss.claimed   0x00000000200013b4        0x4 CMakeFiles/main.dir/home/iwo/pico/pico-sdk/src/rp2_common/hardware_sync/sync.c.obj
 .bss.configured_freq
                0x00000000200013b8       0x28 CMakeFiles/main.dir/home/iwo/pico/pico-sdk/src/rp2_common/hardware_clocks/clocks.c.obj
 .bss.default_alarm_pool_entry_ids_high
                0x00000000200013e0       0x10 CMakeFiles/main.dir/home/iwo/pico/pico-sdk/src/common/pico_time/time.c.obj
 .bss.default_alarm_pool_heap_nodes
                0x00000000200013f0       0x30 CMakeFiles/main.dir/home/iwo/pico/pico-sdk/src/common/pico_time/time.c.obj
 .bss.desc_str.7093
                0x0000000020001420       0x28 CMakeFiles/main.dir/home/iwo/pico/pico-sdk/src/rp2_common/pico_stdio_usb/stdio_usb_descriptors.c.obj
 .bss.drivers   0x0000000020001448        0x4 CMakeFiles/main.dir/home/iwo/pico/pico-sdk/src/rp2_common/pico_stdio/stdio.c.obj
 .bss.filter    0x000000002000144c        0x4 CMakeFiles/main.dir/home/iwo/pico/pico-sdk/src/rp2_common/pico_stdio/stdio.c.obj
 .bss.heap_end.5845
                0x0000000020001450        0x4 CMakeFiles/main.dir/home/iwo/pico/pico-sdk/src/rp2_common/pico_runtime/runtime.c.obj
 .bss.hw_endpoints
                0x0000000020001454      0x400 CMakeFiles/main.dir/home/iwo/pico/pico-sdk/lib/tinyusb/src/portable/raspberrypi/rp2040/dcd_rp2040.c.obj
 .bss.load_value
                0x0000000020001854        0x4 CMakeFiles/main.dir/home/iwo/pico/pico-sdk/src/rp2_common/hardware_watchdog/watchdog.c.obj
 .bss.next_buffer_ptr
                0x0000000020001858        0x4 CMakeFiles/main.dir/home/iwo/pico/pico-sdk/lib/tinyusb/src/portable/raspberrypi/rp2040/dcd_rp2040.c.obj
 .bss.pools     0x000000002000185c       0x10 CMakeFiles/main.dir/home/iwo/pico/pico-sdk/src/common/pico_time/time.c.obj
 .bss.retrieved_id
                0x000000002000186c        0x8 CMakeFiles/main.dir/home/iwo/pico/pico-sdk/src/rp2_common/pico_unique_id/unique_id.c.obj
 .bss.sf_clz_func
                0x0000000020001874        0x4 CMakeFiles/main.dir/home/iwo/pico/pico-sdk/src/rp2_common/pico_double/double_init_rom.c.obj
                0x0000000020001874                sf_clz_func
 .bss.sleep_notifier
                0x0000000020001878        0x4 CMakeFiles/main.dir/home/iwo/pico/pico-sdk/src/common/pico_time/time.c.obj
 .bss.stdio_usb_mutex
                0x000000002000187c        0x8 CMakeFiles/main.dir/home/iwo/pico/pico-sdk/src/rp2_common/pico_stdio_usb/stdio_usb.c.obj
 .bss.target_hi
                0x0000000020001884       0x10 CMakeFiles/main.dir/home/iwo/pico/pico-sdk/src/rp2_common/hardware_timer/timer.c.obj
 .bss.usbd_serial_str
                0x0000000020001894       0x11 CMakeFiles/main.dir/home/iwo/pico/pico-sdk/src/rp2_common/pico_stdio_usb/stdio_usb_descriptors.c.obj
 .bss._app_driver_count
                0x00000000200018a5        0x1 CMakeFiles/main.dir/home/iwo/pico/pico-sdk/lib/tinyusb/src/device/usbd.c.obj
 .bss._usbd_initialized
                0x00000000200018a6        0x1 CMakeFiles/main.dir/home/iwo/pico/pico-sdk/lib/tinyusb/src/device/usbd.c.obj
 .bss.boot2_copyout_valid
                0x00000000200018a7        0x1 CMakeFiles/main.dir/home/iwo/pico/pico-sdk/src/rp2_common/hardware_flash/flash.c.obj
 .bss.claimed   0x00000000200018a8        0x1 CMakeFiles/main.dir/home/iwo/pico/pico-sdk/src/rp2_common/hardware_timer/timer.c.obj
 .bss.irq_hander_chain_free_slot_head
                0x00000000200018a9        0x1 CMakeFiles/main.dir/home/iwo/pico/pico-sdk/src/rp2_common/hardware_irq/irq.c.obj
 .bss.itf_num   0x00000000200018aa        0x1 CMakeFiles/main.dir/home/iwo/pico/pico-sdk/src/rp2_common/pico_stdio_usb/reset_interface.c.obj
 .bss.timer_callbacks_pending
                0x00000000200018ab        0x1 CMakeFiles/main.dir/home/iwo/pico/pico-sdk/src/rp2_common/hardware_timer/timer.c.obj
 *(COMMON)
 COMMON         0x00000000200018ac      0x100 CMakeFiles/main.dir/home/iwo/pico/pico-sdk/src/rp2_common/pico_double/double_init_rom.c.obj
                0x00000000200018ac                sd_table
 COMMON         0x00000000200019ac      0x100 CMakeFiles/main.dir/home/iwo/pico/pico-sdk/src/rp2_common/pico_float/float_init_rom.c.obj
                0x00000000200019ac                sf_table
 COMMON         0x0000000020001aac       0xc0 CMakeFiles/main.dir/home/iwo/pico/pico-sdk/lib/tinyusb/src/device/usbd.c.obj
                0x0000000020001aac                _usbd_qdef_buf
 COMMON         0x0000000020001b6c        0x6 lib/LCD/libLCD.a(LCD_2in.c.obj)
                0x0000000020001b6c                LCD_2IN
 *fill*         0x0000000020001b72        0x2 
 COMMON         0x0000000020001b74        0x4 lib/Infrared/libInfrared.a(Infrared.c.obj)
                0x0000000020001b74                Infrared_PIN
 COMMON         0x0000000020001b78       0x18 lib/GUI/libGUI.a(GUI_Paint.c.obj)
                0x0000000020001b78                Paint
 COMMON         0x0000000020001b90        0x4 lib/Config/libConfig.a(DEV_Config.c.obj)
                0x0000000020001b90                slice_num
 COMMON         0x0000000020001b94        0x4 /usr/lib/gcc/arm-none-eabi/9.2.1/../../../arm-none-eabi/lib/thumb/v6-m/nofp/libg.a(lib_a-reent.o)
                0x0000000020001b94                errno
                0x0000000020001b98                . = ALIGN (0x4)
                0x0000000020001b98                __bss_end__ = .

.heap           0x0000000020001b98      0x800
                0x0000000020001b98                __end__ = .
                0x0000000020001b98                end = __end__
 *(.heap*)
 .heap          0x0000000020001b98      0x800 CMakeFiles/main.dir/home/iwo/pico/pico-sdk/src/rp2_common/pico_standard_link/crt0.S.obj
                0x0000000020002398                __HeapLimit = .

.stack1_dummy   0x0000000020040000        0x0
 *(.stack1*)

.stack_dummy    0x0000000020041000      0x800
 *(.stack*)
 .stack         0x0000000020041000      0x800 CMakeFiles/main.dir/home/iwo/pico/pico-sdk/src/rp2_common/pico_standard_link/crt0.S.obj

.flash_end      0x000000001000cc40        0x0
                0x000000001000cc40                __flash_binary_end = .
                0x0000000020040000                __StackLimit = (ORIGIN (RAM) + LENGTH (RAM))
                0x0000000020041000                __StackOneTop = (ORIGIN (SCRATCH_X) + LENGTH (SCRATCH_X))
                0x0000000020042000                __StackTop = (ORIGIN (SCRATCH_Y) + LENGTH (SCRATCH_Y))
                0x0000000020041000                __StackOneBottom = (__StackOneTop - SIZEOF (.stack1_dummy))
                0x0000000020041800                __StackBottom = (__StackTop - SIZEOF (.stack_dummy))
                0x0000000020042000                PROVIDE (__stack = __StackTop)
                0x0000000000000001                ASSERT ((__StackLimit >= __HeapLimit), region RAM overflowed)
                0x0000000000000001                ASSERT (((__binary_info_header_end - __logical_binary_start) <= 0x100), Binary info must be in first 256 bytes of the binary)
LOAD CMakeFiles/main.dir/main.c.obj
LOAD CMakeFiles/main.dir/home/iwo/pico/pico-sdk/src/rp2_common/pico_stdlib/stdlib.c.obj
LOAD CMakeFiles/main.dir/home/iwo/pico/pico-sdk/src/rp2_common/hardware_gpio/gpio.c.obj
LOAD CMakeFiles/main.dir/home/iwo/pico/pico-sdk/src/rp2_common/hardware_claim/claim.c.obj
LOAD CMakeFiles/main.dir/home/iwo/pico/pico-sdk/src/rp2_common/pico_platform/platform.c.obj
LOAD CMakeFiles/main.dir/home/iwo/pico/pico-sdk/src/rp2_common/hardware_sync/sync.c.obj
LOAD CMakeFiles/main.dir/home/iwo/pico/pico-sdk/src/rp2_common/hardware_uart/uart.c.obj
LOAD CMakeFiles/main.dir/home/iwo/pico/pico-sdk/src/rp2_common/hardware_divider/divider.S.obj
LOAD CMakeFiles/main.dir/home/iwo/pico/pico-sdk/src/common/pico_time/time.c.obj
LOAD CMakeFiles/main.dir/home/iwo/pico/pico-sdk/src/common/pico_time/timeout_helper.c.obj
LOAD CMakeFiles/main.dir/home/iwo/pico/pico-sdk/src/rp2_common/hardware_timer/timer.c.obj
LOAD CMakeFiles/main.dir/home/iwo/pico/pico-sdk/src/common/pico_sync/sem.c.obj
LOAD CMakeFiles/main.dir/home/iwo/pico/pico-sdk/src/common/pico_sync/lock_core.c.obj
LOAD CMakeFiles/main.dir/home/iwo/pico/pico-sdk/src/common/pico_sync/mutex.c.obj
LOAD CMakeFiles/main.dir/home/iwo/pico/pico-sdk/src/common/pico_sync/critical_section.c.obj
LOAD CMakeFiles/main.dir/home/iwo/pico/pico-sdk/src/common/pico_util/datetime.c.obj
LOAD CMakeFiles/main.dir/home/iwo/pico/pico-sdk/src/common/pico_util/pheap.c.obj
LOAD CMakeFiles/main.dir/home/iwo/pico/pico-sdk/src/common/pico_util/queue.c.obj
LOAD CMakeFiles/main.dir/home/iwo/pico/pico-sdk/src/rp2_common/pico_runtime/runtime.c.obj
LOAD CMakeFiles/main.dir/home/iwo/pico/pico-sdk/src/rp2_common/hardware_clocks/clocks.c.obj
LOAD CMakeFiles/main.dir/home/iwo/pico/pico-sdk/src/rp2_common/hardware_irq/irq.c.obj
LOAD CMakeFiles/main.dir/home/iwo/pico/pico-sdk/src/rp2_common/hardware_irq/irq_handler_chain.S.obj
LOAD CMakeFiles/main.dir/home/iwo/pico/pico-sdk/src/rp2_common/hardware_pll/pll.c.obj
LOAD CMakeFiles/main.dir/home/iwo/pico/pico-sdk/src/rp2_common/hardware_vreg/vreg.c.obj
LOAD CMakeFiles/main.dir/home/iwo/pico/pico-sdk/src/rp2_common/hardware_watchdog/watchdog.c.obj
LOAD CMakeFiles/main.dir/home/iwo/pico/pico-sdk/src/rp2_common/hardware_xosc/xosc.c.obj
LOAD CMakeFiles/main.dir/home/iwo/pico/pico-sdk/src/rp2_common/pico_printf/printf.c.obj
LOAD CMakeFiles/main.dir/home/iwo/pico/pico-sdk/src/rp2_common/pico_bit_ops/bit_ops_aeabi.S.obj
LOAD CMakeFiles/main.dir/home/iwo/pico/pico-sdk/src/rp2_common/pico_bootrom/bootrom.c.obj
LOAD CMakeFiles/main.dir/home/iwo/pico/pico-sdk/src/rp2_common/pico_divider/divider.S.obj
LOAD CMakeFiles/main.dir/home/iwo/pico/pico-sdk/src/rp2_common/pico_double/double_aeabi.S.obj
LOAD CMakeFiles/main.dir/home/iwo/pico/pico-sdk/src/rp2_common/pico_double/double_init_rom.c.obj
LOAD CMakeFiles/main.dir/home/iwo/pico/pico-sdk/src/rp2_common/pico_double/double_math.c.obj
LOAD CMakeFiles/main.dir/home/iwo/pico/pico-sdk/src/rp2_common/pico_double/double_v1_rom_shim.S.obj
LOAD CMakeFiles/main.dir/home/iwo/pico/pico-sdk/src/rp2_common/pico_int64_ops/pico_int64_ops_aeabi.S.obj
LOAD CMakeFiles/main.dir/home/iwo/pico/pico-sdk/src/rp2_common/pico_float/float_aeabi.S.obj
LOAD CMakeFiles/main.dir/home/iwo/pico/pico-sdk/src/rp2_common/pico_float/float_init_rom.c.obj
LOAD CMakeFiles/main.dir/home/iwo/pico/pico-sdk/src/rp2_common/pico_float/float_math.c.obj
LOAD CMakeFiles/main.dir/home/iwo/pico/pico-sdk/src/rp2_common/pico_float/float_v1_rom_shim.S.obj
LOAD CMakeFiles/main.dir/home/iwo/pico/pico-sdk/src/rp2_common/pico_malloc/pico_malloc.c.obj
LOAD CMakeFiles/main.dir/home/iwo/pico/pico-sdk/src/rp2_common/pico_mem_ops/mem_ops_aeabi.S.obj
LOAD CMakeFiles/main.dir/home/iwo/pico/pico-sdk/src/rp2_common/pico_standard_link/crt0.S.obj
LOAD CMakeFiles/main.dir/home/iwo/pico/pico-sdk/src/rp2_common/pico_standard_link/new_delete.cpp.obj
LOAD CMakeFiles/main.dir/home/iwo/pico/pico-sdk/src/rp2_common/pico_standard_link/binary_info.c.obj
LOAD CMakeFiles/main.dir/home/iwo/pico/pico-sdk/src/rp2_common/pico_stdio/stdio.c.obj
LOAD CMakeFiles/main.dir/home/iwo/pico/pico-sdk/src/rp2_common/pico_stdio_usb/reset_interface.c.obj
LOAD CMakeFiles/main.dir/home/iwo/pico/pico-sdk/src/rp2_common/pico_stdio_usb/stdio_usb.c.obj
LOAD CMakeFiles/main.dir/home/iwo/pico/pico-sdk/src/rp2_common/pico_stdio_usb/stdio_usb_descriptors.c.obj
LOAD CMakeFiles/main.dir/home/iwo/pico/pico-sdk/lib/tinyusb/src/portable/raspberrypi/rp2040/dcd_rp2040.c.obj
LOAD CMakeFiles/main.dir/home/iwo/pico/pico-sdk/lib/tinyusb/src/portable/raspberrypi/rp2040/rp2040_usb.c.obj
LOAD CMakeFiles/main.dir/home/iwo/pico/pico-sdk/lib/tinyusb/src/device/usbd.c.obj
LOAD CMakeFiles/main.dir/home/iwo/pico/pico-sdk/lib/tinyusb/src/device/usbd_control.c.obj
LOAD CMakeFiles/main.dir/home/iwo/pico/pico-sdk/lib/tinyusb/src/class/audio/audio_device.c.obj
LOAD CMakeFiles/main.dir/home/iwo/pico/pico-sdk/lib/tinyusb/src/class/cdc/cdc_device.c.obj
LOAD CMakeFiles/main.dir/home/iwo/pico/pico-sdk/lib/tinyusb/src/class/dfu/dfu_device.c.obj
LOAD CMakeFiles/main.dir/home/iwo/pico/pico-sdk/lib/tinyusb/src/class/dfu/dfu_rt_device.c.obj
LOAD CMakeFiles/main.dir/home/iwo/pico/pico-sdk/lib/tinyusb/src/class/hid/hid_device.c.obj
LOAD CMakeFiles/main.dir/home/iwo/pico/pico-sdk/lib/tinyusb/src/class/midi/midi_device.c.obj
LOAD CMakeFiles/main.dir/home/iwo/pico/pico-sdk/lib/tinyusb/src/class/msc/msc_device.c.obj
LOAD CMakeFiles/main.dir/home/iwo/pico/pico-sdk/lib/tinyusb/src/class/net/ecm_rndis_device.c.obj
LOAD CMakeFiles/main.dir/home/iwo/pico/pico-sdk/lib/tinyusb/src/class/net/ncm_device.c.obj
LOAD CMakeFiles/main.dir/home/iwo/pico/pico-sdk/lib/tinyusb/src/class/usbtmc/usbtmc_device.c.obj
LOAD CMakeFiles/main.dir/home/iwo/pico/pico-sdk/lib/tinyusb/src/class/vendor/vendor_device.c.obj
LOAD CMakeFiles/main.dir/home/iwo/pico/pico-sdk/lib/tinyusb/src/class/video/video_device.c.obj
LOAD CMakeFiles/main.dir/home/iwo/pico/pico-sdk/lib/tinyusb/src/tusb.c.obj
LOAD CMakeFiles/main.dir/home/iwo/pico/pico-sdk/lib/tinyusb/src/common/tusb_fifo.c.obj
LOAD CMakeFiles/main.dir/home/iwo/pico/pico-sdk/src/rp2_common/pico_fix/rp2040_usb_device_enumeration/rp2040_usb_device_enumeration.c.obj
LOAD CMakeFiles/main.dir/home/iwo/pico/pico-sdk/src/rp2_common/pico_unique_id/unique_id.c.obj
LOAD CMakeFiles/main.dir/home/iwo/pico/pico-sdk/src/rp2_common/hardware_flash/flash.c.obj
LOAD CMakeFiles/main.dir/home/iwo/pico/pico-sdk/src/rp2_common/hardware_spi/spi.c.obj
LOAD CMakeFiles/main.dir/home/iwo/pico/pico-sdk/src/rp2_common/hardware_i2c/i2c.c.obj
LOAD CMakeFiles/main.dir/home/iwo/pico/pico-sdk/src/rp2_common/hardware_adc/adc.c.obj
LOAD examples/libexamples.a
LOAD lib/LCD/libLCD.a
LOAD lib/OLED/libOLED.a
LOAD lib/Infrared/libInfrared.a
LOAD lib/Icm20948/libIcm20948.a
LOAD lib/GUI/libGUI.a
LOAD lib/Fonts/libFonts.a
LOAD lib/Config/libConfig.a
LOAD /tmp/ccN530LL.o
LOAD /usr/lib/gcc/arm-none-eabi/9.2.1/../../../arm-none-eabi/lib/thumb/v6-m/nofp/libstdc++.a
LOAD /usr/lib/gcc/arm-none-eabi/9.2.1/../../../arm-none-eabi/lib/thumb/v6-m/nofp/libm.a
START GROUP
LOAD /usr/lib/gcc/arm-none-eabi/9.2.1/thumb/v6-m/nofp/libgcc.a
LOAD /usr/lib/gcc/arm-none-eabi/9.2.1/../../../arm-none-eabi/lib/thumb/v6-m/nofp/libg.a
LOAD /usr/lib/gcc/arm-none-eabi/9.2.1/../../../arm-none-eabi/lib/thumb/v6-m/nofp/libc.a
END GROUP
START GROUP
LOAD /usr/lib/gcc/arm-none-eabi/9.2.1/thumb/v6-m/nofp/libgcc.a
LOAD /usr/lib/gcc/arm-none-eabi/9.2.1/../../../arm-none-eabi/lib/thumb/v6-m/nofp/libc.a
LOAD /usr/lib/gcc/arm-none-eabi/9.2.1/../../../arm-none-eabi/lib/thumb/v6-m/nofp/libnosys.a
END GROUP
LOAD /usr/lib/gcc/arm-none-eabi/9.2.1/thumb/v6-m/nofp/crtend.o
LOAD /usr/lib/gcc/arm-none-eabi/9.2.1/thumb/v6-m/nofp/crtn.o
OUTPUT(main.elf elf32-littlearm)
LOAD linker stubs

.ARM.attributes
                0x0000000000000000       0x28
 .ARM.attributes
                0x0000000000000000       0x1e /usr/lib/gcc/arm-none-eabi/9.2.1/thumb/v6-m/nofp/crti.o
 .ARM.attributes
                0x000000000000001e       0x2c /usr/lib/gcc/arm-none-eabi/9.2.1/thumb/v6-m/nofp/crtbegin.o
 .ARM.attributes
                0x000000000000004a       0x2c CMakeFiles/main.dir/main.c.obj
 .ARM.attributes
                0x0000000000000076       0x2c CMakeFiles/main.dir/home/iwo/pico/pico-sdk/src/rp2_common/hardware_gpio/gpio.c.obj
 .ARM.attributes
                0x00000000000000a2       0x2c CMakeFiles/main.dir/home/iwo/pico/pico-sdk/src/rp2_common/hardware_claim/claim.c.obj
 .ARM.attributes
                0x00000000000000ce       0x2c CMakeFiles/main.dir/home/iwo/pico/pico-sdk/src/rp2_common/pico_platform/platform.c.obj
 .ARM.attributes
                0x00000000000000fa       0x2c CMakeFiles/main.dir/home/iwo/pico/pico-sdk/src/rp2_common/hardware_sync/sync.c.obj
 .ARM.attributes
                0x0000000000000126       0x2c CMakeFiles/main.dir/home/iwo/pico/pico-sdk/src/common/pico_time/time.c.obj
 .ARM.attributes
                0x0000000000000152       0x2c CMakeFiles/main.dir/home/iwo/pico/pico-sdk/src/rp2_common/hardware_timer/timer.c.obj
 .ARM.attributes
                0x000000000000017e       0x2c CMakeFiles/main.dir/home/iwo/pico/pico-sdk/src/common/pico_sync/lock_core.c.obj
 .ARM.attributes
                0x00000000000001aa       0x2c CMakeFiles/main.dir/home/iwo/pico/pico-sdk/src/common/pico_sync/mutex.c.obj
 .ARM.attributes
                0x00000000000001d6       0x2c CMakeFiles/main.dir/home/iwo/pico/pico-sdk/src/common/pico_sync/critical_section.c.obj
 .ARM.attributes
                0x0000000000000202       0x2c CMakeFiles/main.dir/home/iwo/pico/pico-sdk/src/common/pico_util/pheap.c.obj
 .ARM.attributes
                0x000000000000022e       0x2c CMakeFiles/main.dir/home/iwo/pico/pico-sdk/src/rp2_common/pico_runtime/runtime.c.obj
 .ARM.attributes
                0x000000000000025a       0x2c CMakeFiles/main.dir/home/iwo/pico/pico-sdk/src/rp2_common/hardware_clocks/clocks.c.obj
 .ARM.attributes
                0x0000000000000286       0x2c CMakeFiles/main.dir/home/iwo/pico/pico-sdk/src/rp2_common/hardware_irq/irq.c.obj
 .ARM.attributes
                0x00000000000002b2       0x22 CMakeFiles/main.dir/home/iwo/pico/pico-sdk/src/rp2_common/hardware_irq/irq_handler_chain.S.obj
 .ARM.attributes
                0x00000000000002d4       0x2c CMakeFiles/main.dir/home/iwo/pico/pico-sdk/src/rp2_common/hardware_pll/pll.c.obj
 .ARM.attributes
                0x0000000000000300       0x2c CMakeFiles/main.dir/home/iwo/pico/pico-sdk/src/rp2_common/hardware_watchdog/watchdog.c.obj
 .ARM.attributes
                0x000000000000032c       0x2c CMakeFiles/main.dir/home/iwo/pico/pico-sdk/src/rp2_common/hardware_xosc/xosc.c.obj
 .ARM.attributes
                0x0000000000000358       0x2c CMakeFiles/main.dir/home/iwo/pico/pico-sdk/src/rp2_common/pico_printf/printf.c.obj
 .ARM.attributes
                0x0000000000000384       0x22 CMakeFiles/main.dir/home/iwo/pico/pico-sdk/src/rp2_common/pico_bit_ops/bit_ops_aeabi.S.obj
 .ARM.attributes
                0x00000000000003a6       0x2c CMakeFiles/main.dir/home/iwo/pico/pico-sdk/src/rp2_common/pico_bootrom/bootrom.c.obj
 .ARM.attributes
                0x00000000000003d2       0x22 CMakeFiles/main.dir/home/iwo/pico/pico-sdk/src/rp2_common/pico_divider/divider.S.obj
 .ARM.attributes
                0x00000000000003f4       0x22 CMakeFiles/main.dir/home/iwo/pico/pico-sdk/src/rp2_common/pico_double/double_aeabi.S.obj
 .ARM.attributes
                0x0000000000000416       0x2c CMakeFiles/main.dir/home/iwo/pico/pico-sdk/src/rp2_common/pico_double/double_init_rom.c.obj
 .ARM.attributes
                0x0000000000000442       0x2c CMakeFiles/main.dir/home/iwo/pico/pico-sdk/src/rp2_common/pico_double/double_math.c.obj
 .ARM.attributes
                0x000000000000046e       0x22 CMakeFiles/main.dir/home/iwo/pico/pico-sdk/src/rp2_common/pico_double/double_v1_rom_shim.S.obj
 .ARM.attributes
                0x0000000000000490       0x22 CMakeFiles/main.dir/home/iwo/pico/pico-sdk/src/rp2_common/pico_int64_ops/pico_int64_ops_aeabi.S.obj
 .ARM.attributes
                0x00000000000004b2       0x22 CMakeFiles/main.dir/home/iwo/pico/pico-sdk/src/rp2_common/pico_float/float_aeabi.S.obj
 .ARM.attributes
                0x00000000000004d4       0x2c CMakeFiles/main.dir/home/iwo/pico/pico-sdk/src/rp2_common/pico_float/float_init_rom.c.obj
 .ARM.attributes
                0x0000000000000500       0x22 CMakeFiles/main.dir/home/iwo/pico/pico-sdk/src/rp2_common/pico_float/float_v1_rom_shim.S.obj
 .ARM.attributes
                0x0000000000000522       0x2c CMakeFiles/main.dir/home/iwo/pico/pico-sdk/src/rp2_common/pico_malloc/pico_malloc.c.obj
 .ARM.attributes
                0x000000000000054e       0x22 CMakeFiles/main.dir/home/iwo/pico/pico-sdk/src/rp2_common/pico_mem_ops/mem_ops_aeabi.S.obj
 .ARM.attributes
                0x0000000000000570       0x22 CMakeFiles/main.dir/home/iwo/pico/pico-sdk/src/rp2_common/pico_standard_link/crt0.S.obj
 .ARM.attributes
                0x0000000000000592       0x32 CMakeFiles/main.dir/home/iwo/pico/pico-sdk/src/rp2_common/pico_standard_link/binary_info.c.obj
 .ARM.attributes
                0x00000000000005c4       0x2c CMakeFiles/main.dir/home/iwo/pico/pico-sdk/src/rp2_common/pico_stdio/stdio.c.obj
 .ARM.attributes
                0x00000000000005f0       0x2c CMakeFiles/main.dir/home/iwo/pico/pico-sdk/src/rp2_common/pico_stdio_usb/reset_interface.c.obj
 .ARM.attributes
                0x000000000000061c       0x2c CMakeFiles/main.dir/home/iwo/pico/pico-sdk/src/rp2_common/pico_stdio_usb/stdio_usb.c.obj
 .ARM.attributes
                0x0000000000000648       0x2c CMakeFiles/main.dir/home/iwo/pico/pico-sdk/src/rp2_common/pico_stdio_usb/stdio_usb_descriptors.c.obj
 .ARM.attributes
                0x0000000000000674       0x2c CMakeFiles/main.dir/home/iwo/pico/pico-sdk/lib/tinyusb/src/portable/raspberrypi/rp2040/dcd_rp2040.c.obj
 .ARM.attributes
                0x00000000000006a0       0x2c CMakeFiles/main.dir/home/iwo/pico/pico-sdk/lib/tinyusb/src/portable/raspberrypi/rp2040/rp2040_usb.c.obj
 .ARM.attributes
                0x00000000000006cc       0x2c CMakeFiles/main.dir/home/iwo/pico/pico-sdk/lib/tinyusb/src/device/usbd.c.obj
 .ARM.attributes
                0x00000000000006f8       0x2c CMakeFiles/main.dir/home/iwo/pico/pico-sdk/lib/tinyusb/src/device/usbd_control.c.obj
 .ARM.attributes
                0x0000000000000724       0x2c CMakeFiles/main.dir/home/iwo/pico/pico-sdk/lib/tinyusb/src/class/cdc/cdc_device.c.obj
 .ARM.attributes
                0x0000000000000750       0x2c CMakeFiles/main.dir/home/iwo/pico/pico-sdk/lib/tinyusb/src/tusb.c.obj
 .ARM.attributes
                0x000000000000077c       0x2c CMakeFiles/main.dir/home/iwo/pico/pico-sdk/lib/tinyusb/src/common/tusb_fifo.c.obj
 .ARM.attributes
                0x00000000000007a8       0x2c CMakeFiles/main.dir/home/iwo/pico/pico-sdk/src/rp2_common/pico_unique_id/unique_id.c.obj
 .ARM.attributes
                0x00000000000007d4       0x2c CMakeFiles/main.dir/home/iwo/pico/pico-sdk/src/rp2_common/hardware_flash/flash.c.obj
 .ARM.attributes
                0x0000000000000800       0x2c CMakeFiles/main.dir/home/iwo/pico/pico-sdk/src/rp2_common/hardware_spi/spi.c.obj
 .ARM.attributes
                0x000000000000082c       0x2c CMakeFiles/main.dir/home/iwo/pico/pico-sdk/src/rp2_common/hardware_i2c/i2c.c.obj
 .ARM.attributes
                0x0000000000000858       0x2c examples/libexamples.a(LCD_2in_test.c.obj)
 .ARM.attributes
                0x0000000000000884       0x2c lib/LCD/libLCD.a(LCD_2in.c.obj)
 .ARM.attributes
                0x00000000000008b0       0x2c lib/Infrared/libInfrared.a(Infrared.c.obj)
 .ARM.attributes
                0x00000000000008dc       0x2c lib/GUI/libGUI.a(GUI_Paint.c.obj)
 .ARM.attributes
                0x0000000000000908       0x32 lib/Fonts/libFonts.a(font20.c.obj)
 .ARM.attributes
                0x000000000000093a       0x2c lib/Config/libConfig.a(DEV_Config.c.obj)
 .ARM.attributes
                0x0000000000000966       0x22 /tmp/ccN530LL.o
 .ARM.attributes
                0x0000000000000988       0x1e /usr/lib/gcc/arm-none-eabi/9.2.1/thumb/v6-m/nofp/libgcc.a(_dvmd_tls.o)
 .ARM.attributes
                0x00000000000009a6       0x2c /usr/lib/gcc/arm-none-eabi/9.2.1/../../../arm-none-eabi/lib/thumb/v6-m/nofp/libg.a(lib_a-impure.o)
 .ARM.attributes
                0x00000000000009d2       0x2c /usr/lib/gcc/arm-none-eabi/9.2.1/../../../arm-none-eabi/lib/thumb/v6-m/nofp/libg.a(lib_a-malloc.o)
 .ARM.attributes
                0x00000000000009fe       0x2c /usr/lib/gcc/arm-none-eabi/9.2.1/../../../arm-none-eabi/lib/thumb/v6-m/nofp/libg.a(lib_a-mallocr.o)
 .ARM.attributes
                0x0000000000000a2a       0x2c /usr/lib/gcc/arm-none-eabi/9.2.1/../../../arm-none-eabi/lib/thumb/v6-m/nofp/libg.a(lib_a-mlock.o)
 .ARM.attributes
                0x0000000000000a56       0x2c /usr/lib/gcc/arm-none-eabi/9.2.1/../../../arm-none-eabi/lib/thumb/v6-m/nofp/libg.a(lib_a-sbrkr.o)
 .ARM.attributes
                0x0000000000000a82       0x2c /usr/lib/gcc/arm-none-eabi/9.2.1/../../../arm-none-eabi/lib/thumb/v6-m/nofp/libg.a(lib_a-strlen-stub.o)
 .ARM.attributes
                0x0000000000000aae       0x2c /usr/lib/gcc/arm-none-eabi/9.2.1/../../../arm-none-eabi/lib/thumb/v6-m/nofp/libg.a(lib_a-freer.o)
 .ARM.attributes
                0x0000000000000ada       0x2c /usr/lib/gcc/arm-none-eabi/9.2.1/../../../arm-none-eabi/lib/thumb/v6-m/nofp/libg.a(lib_a-reent.o)
 .ARM.attributes
                0x0000000000000b06       0x2c /usr/lib/gcc/arm-none-eabi/9.2.1/thumb/v6-m/nofp/crtend.o

.comment        0x0000000000000000       0x59
 .comment       0x0000000000000000       0x59 /usr/lib/gcc/arm-none-eabi/9.2.1/thumb/v6-m/nofp/crtbegin.o
                                         0x5a (size before relaxing)
 .comment       0x0000000000000059       0x5a CMakeFiles/main.dir/main.c.obj
 .comment       0x0000000000000059       0x5a CMakeFiles/main.dir/home/iwo/pico/pico-sdk/src/rp2_common/hardware_gpio/gpio.c.obj
 .comment       0x0000000000000059       0x5a CMakeFiles/main.dir/home/iwo/pico/pico-sdk/src/rp2_common/hardware_claim/claim.c.obj
 .comment       0x0000000000000059       0x5a CMakeFiles/main.dir/home/iwo/pico/pico-sdk/src/rp2_common/pico_platform/platform.c.obj
 .comment       0x0000000000000059       0x5a CMakeFiles/main.dir/home/iwo/pico/pico-sdk/src/rp2_common/hardware_sync/sync.c.obj
 .comment       0x0000000000000059       0x5a CMakeFiles/main.dir/home/iwo/pico/pico-sdk/src/common/pico_time/time.c.obj
 .comment       0x0000000000000059       0x5a CMakeFiles/main.dir/home/iwo/pico/pico-sdk/src/rp2_common/hardware_timer/timer.c.obj
 .comment       0x0000000000000059       0x5a CMakeFiles/main.dir/home/iwo/pico/pico-sdk/src/common/pico_sync/lock_core.c.obj
 .comment       0x0000000000000059       0x5a CMakeFiles/main.dir/home/iwo/pico/pico-sdk/src/common/pico_sync/mutex.c.obj
 .comment       0x0000000000000059       0x5a CMakeFiles/main.dir/home/iwo/pico/pico-sdk/src/common/pico_sync/critical_section.c.obj
 .comment       0x0000000000000059       0x5a CMakeFiles/main.dir/home/iwo/pico/pico-sdk/src/common/pico_util/pheap.c.obj
 .comment       0x0000000000000059       0x5a CMakeFiles/main.dir/home/iwo/pico/pico-sdk/src/rp2_common/pico_runtime/runtime.c.obj
 .comment       0x0000000000000059       0x5a CMakeFiles/main.dir/home/iwo/pico/pico-sdk/src/rp2_common/hardware_clocks/clocks.c.obj
 .comment       0x0000000000000059       0x5a CMakeFiles/main.dir/home/iwo/pico/pico-sdk/src/rp2_common/hardware_irq/irq.c.obj
 .comment       0x0000000000000059       0x5a CMakeFiles/main.dir/home/iwo/pico/pico-sdk/src/rp2_common/hardware_pll/pll.c.obj
 .comment       0x0000000000000059       0x5a CMakeFiles/main.dir/home/iwo/pico/pico-sdk/src/rp2_common/hardware_watchdog/watchdog.c.obj
 .comment       0x0000000000000059       0x5a CMakeFiles/main.dir/home/iwo/pico/pico-sdk/src/rp2_common/hardware_xosc/xosc.c.obj
 .comment       0x0000000000000059       0x5a CMakeFiles/main.dir/home/iwo/pico/pico-sdk/src/rp2_common/pico_printf/printf.c.obj
 .comment       0x0000000000000059       0x5a CMakeFiles/main.dir/home/iwo/pico/pico-sdk/src/rp2_common/pico_bootrom/bootrom.c.obj
 .comment       0x0000000000000059       0x5a CMakeFiles/main.dir/home/iwo/pico/pico-sdk/src/rp2_common/pico_double/double_init_rom.c.obj
 .comment       0x0000000000000059       0x5a CMakeFiles/main.dir/home/iwo/pico/pico-sdk/src/rp2_common/pico_double/double_math.c.obj
 .comment       0x0000000000000059       0x5a CMakeFiles/main.dir/home/iwo/pico/pico-sdk/src/rp2_common/pico_float/float_init_rom.c.obj
 .comment       0x0000000000000059       0x5a CMakeFiles/main.dir/home/iwo/pico/pico-sdk/src/rp2_common/pico_malloc/pico_malloc.c.obj
 .comment       0x0000000000000059       0x5a CMakeFiles/main.dir/home/iwo/pico/pico-sdk/src/rp2_common/pico_standard_link/binary_info.c.obj
 .comment       0x0000000000000059       0x5a CMakeFiles/main.dir/home/iwo/pico/pico-sdk/src/rp2_common/pico_stdio/stdio.c.obj
 .comment       0x0000000000000059       0x5a CMakeFiles/main.dir/home/iwo/pico/pico-sdk/src/rp2_common/pico_stdio_usb/reset_interface.c.obj
 .comment       0x0000000000000059       0x5a CMakeFiles/main.dir/home/iwo/pico/pico-sdk/src/rp2_common/pico_stdio_usb/stdio_usb.c.obj
 .comment       0x0000000000000059       0x5a CMakeFiles/main.dir/home/iwo/pico/pico-sdk/src/rp2_common/pico_stdio_usb/stdio_usb_descriptors.c.obj
 .comment       0x0000000000000059       0x5a CMakeFiles/main.dir/home/iwo/pico/pico-sdk/lib/tinyusb/src/portable/raspberrypi/rp2040/dcd_rp2040.c.obj
 .comment       0x0000000000000059       0x5a CMakeFiles/main.dir/home/iwo/pico/pico-sdk/lib/tinyusb/src/portable/raspberrypi/rp2040/rp2040_usb.c.obj
 .comment       0x0000000000000059       0x5a CMakeFiles/main.dir/home/iwo/pico/pico-sdk/lib/tinyusb/src/device/usbd.c.obj
 .comment       0x0000000000000059       0x5a CMakeFiles/main.dir/home/iwo/pico/pico-sdk/lib/tinyusb/src/device/usbd_control.c.obj
 .comment       0x0000000000000059       0x5a CMakeFiles/main.dir/home/iwo/pico/pico-sdk/lib/tinyusb/src/class/cdc/cdc_device.c.obj
 .comment       0x0000000000000059       0x5a CMakeFiles/main.dir/home/iwo/pico/pico-sdk/lib/tinyusb/src/tusb.c.obj
 .comment       0x0000000000000059       0x5a CMakeFiles/main.dir/home/iwo/pico/pico-sdk/lib/tinyusb/src/common/tusb_fifo.c.obj
 .comment       0x0000000000000059       0x5a CMakeFiles/main.dir/home/iwo/pico/pico-sdk/src/rp2_common/pico_unique_id/unique_id.c.obj
 .comment       0x0000000000000059       0x5a CMakeFiles/main.dir/home/iwo/pico/pico-sdk/src/rp2_common/hardware_flash/flash.c.obj
 .comment       0x0000000000000059       0x5a CMakeFiles/main.dir/home/iwo/pico/pico-sdk/src/rp2_common/hardware_spi/spi.c.obj
 .comment       0x0000000000000059       0x5a CMakeFiles/main.dir/home/iwo/pico/pico-sdk/src/rp2_common/hardware_i2c/i2c.c.obj
 .comment       0x0000000000000059       0x5a examples/libexamples.a(LCD_2in_test.c.obj)
 .comment       0x0000000000000059       0x5a lib/LCD/libLCD.a(LCD_2in.c.obj)
 .comment       0x0000000000000059       0x5a lib/Infrared/libInfrared.a(Infrared.c.obj)
 .comment       0x0000000000000059       0x5a lib/GUI/libGUI.a(GUI_Paint.c.obj)
 .comment       0x0000000000000059       0x5a lib/Fonts/libFonts.a(font20.c.obj)
 .comment       0x0000000000000059       0x5a lib/Config/libConfig.a(DEV_Config.c.obj)
 .comment       0x0000000000000059       0x5a /usr/lib/gcc/arm-none-eabi/9.2.1/../../../arm-none-eabi/lib/thumb/v6-m/nofp/libg.a(lib_a-impure.o)
 .comment       0x0000000000000059       0x5a /usr/lib/gcc/arm-none-eabi/9.2.1/../../../arm-none-eabi/lib/thumb/v6-m/nofp/libg.a(lib_a-malloc.o)
 .comment       0x0000000000000059       0x5a /usr/lib/gcc/arm-none-eabi/9.2.1/../../../arm-none-eabi/lib/thumb/v6-m/nofp/libg.a(lib_a-mallocr.o)
 .comment       0x0000000000000059       0x5a /usr/lib/gcc/arm-none-eabi/9.2.1/../../../arm-none-eabi/lib/thumb/v6-m/nofp/libg.a(lib_a-mlock.o)
 .comment       0x0000000000000059       0x5a /usr/lib/gcc/arm-none-eabi/9.2.1/../../../arm-none-eabi/lib/thumb/v6-m/nofp/libg.a(lib_a-sbrkr.o)
 .comment       0x0000000000000059       0x5a /usr/lib/gcc/arm-none-eabi/9.2.1/../../../arm-none-eabi/lib/thumb/v6-m/nofp/libg.a(lib_a-strlen-stub.o)
 .comment       0x0000000000000059       0x5a /usr/lib/gcc/arm-none-eabi/9.2.1/../../../arm-none-eabi/lib/thumb/v6-m/nofp/libg.a(lib_a-freer.o)
 .comment       0x0000000000000059       0x5a /usr/lib/gcc/arm-none-eabi/9.2.1/../../../arm-none-eabi/lib/thumb/v6-m/nofp/libg.a(lib_a-reent.o)
 .comment       0x0000000000000059       0x5a /usr/lib/gcc/arm-none-eabi/9.2.1/thumb/v6-m/nofp/crtend.o

.debug_info     0x0000000000000000    0x42875
 .debug_info    0x0000000000000000     0x1081 CMakeFiles/main.dir/main.c.obj
 .debug_info    0x0000000000001081     0x1479 CMakeFiles/main.dir/home/iwo/pico/pico-sdk/src/rp2_common/hardware_gpio/gpio.c.obj
 .debug_info    0x00000000000024fa      0x6a3 CMakeFiles/main.dir/home/iwo/pico/pico-sdk/src/rp2_common/hardware_claim/claim.c.obj
 .debug_info    0x0000000000002b9d      0x1cb CMakeFiles/main.dir/home/iwo/pico/pico-sdk/src/rp2_common/pico_platform/platform.c.obj
 .debug_info    0x0000000000002d68      0x576 CMakeFiles/main.dir/home/iwo/pico/pico-sdk/src/rp2_common/hardware_sync/sync.c.obj
 .debug_info    0x00000000000032de     0x435e CMakeFiles/main.dir/home/iwo/pico/pico-sdk/src/common/pico_time/time.c.obj
 .debug_info    0x000000000000763c     0x10e6 CMakeFiles/main.dir/home/iwo/pico/pico-sdk/src/rp2_common/hardware_timer/timer.c.obj
 .debug_info    0x0000000000008722      0x1e4 CMakeFiles/main.dir/home/iwo/pico/pico-sdk/src/common/pico_sync/lock_core.c.obj
 .debug_info    0x0000000000008906     0x1feb CMakeFiles/main.dir/home/iwo/pico/pico-sdk/src/common/pico_sync/mutex.c.obj
 .debug_info    0x000000000000a8f1      0x311 CMakeFiles/main.dir/home/iwo/pico/pico-sdk/src/common/pico_sync/critical_section.c.obj
 .debug_info    0x000000000000ac02     0x1aa5 CMakeFiles/main.dir/home/iwo/pico/pico-sdk/src/common/pico_util/pheap.c.obj
 .debug_info    0x000000000000c6a7     0x1355 CMakeFiles/main.dir/home/iwo/pico/pico-sdk/src/rp2_common/pico_runtime/runtime.c.obj
 .debug_info    0x000000000000d9fc      0xf02 CMakeFiles/main.dir/home/iwo/pico/pico-sdk/src/rp2_common/hardware_clocks/clocks.c.obj
 .debug_info    0x000000000000e8fe     0x195a CMakeFiles/main.dir/home/iwo/pico/pico-sdk/src/rp2_common/hardware_irq/irq.c.obj
 .debug_info    0x0000000000010258      0x4e8 CMakeFiles/main.dir/home/iwo/pico/pico-sdk/src/rp2_common/hardware_pll/pll.c.obj
 .debug_info    0x0000000000010740      0xd7e CMakeFiles/main.dir/home/iwo/pico/pico-sdk/src/rp2_common/hardware_watchdog/watchdog.c.obj
 .debug_info    0x00000000000114be      0x1c0 CMakeFiles/main.dir/home/iwo/pico/pico-sdk/src/rp2_common/hardware_xosc/xosc.c.obj
 .debug_info    0x000000000001167e     0x1fbf CMakeFiles/main.dir/home/iwo/pico/pico-sdk/src/rp2_common/pico_printf/printf.c.obj
 .debug_info    0x000000000001363d       0x22 CMakeFiles/main.dir/home/iwo/pico/pico-sdk/src/rp2_common/pico_bit_ops/bit_ops_aeabi.S.obj
 .debug_info    0x000000000001365f      0x258 CMakeFiles/main.dir/home/iwo/pico/pico-sdk/src/rp2_common/pico_bootrom/bootrom.c.obj
 .debug_info    0x00000000000138b7       0x22 CMakeFiles/main.dir/home/iwo/pico/pico-sdk/src/rp2_common/pico_divider/divider.S.obj
 .debug_info    0x00000000000138d9       0x22 CMakeFiles/main.dir/home/iwo/pico/pico-sdk/src/rp2_common/pico_double/double_aeabi.S.obj
 .debug_info    0x00000000000138fb      0xb2a CMakeFiles/main.dir/home/iwo/pico/pico-sdk/src/rp2_common/pico_double/double_init_rom.c.obj
 .debug_info    0x0000000000014425     0x4310 CMakeFiles/main.dir/home/iwo/pico/pico-sdk/src/rp2_common/pico_double/double_math.c.obj
 .debug_info    0x0000000000018735       0x22 CMakeFiles/main.dir/home/iwo/pico/pico-sdk/src/rp2_common/pico_double/double_v1_rom_shim.S.obj
 .debug_info    0x0000000000018757       0x26 CMakeFiles/main.dir/home/iwo/pico/pico-sdk/src/rp2_common/pico_int64_ops/pico_int64_ops_aeabi.S.obj
 .debug_info    0x000000000001877d       0x22 CMakeFiles/main.dir/home/iwo/pico/pico-sdk/src/rp2_common/pico_float/float_aeabi.S.obj
 .debug_info    0x000000000001879f      0xb44 CMakeFiles/main.dir/home/iwo/pico/pico-sdk/src/rp2_common/pico_float/float_init_rom.c.obj
 .debug_info    0x00000000000192e3       0x22 CMakeFiles/main.dir/home/iwo/pico/pico-sdk/src/rp2_common/pico_float/float_v1_rom_shim.S.obj
 .debug_info    0x0000000000019305      0xb12 CMakeFiles/main.dir/home/iwo/pico/pico-sdk/src/rp2_common/pico_malloc/pico_malloc.c.obj
 .debug_info    0x0000000000019e17       0x22 CMakeFiles/main.dir/home/iwo/pico/pico-sdk/src/rp2_common/pico_mem_ops/mem_ops_aeabi.S.obj
 .debug_info    0x0000000000019e39       0x22 CMakeFiles/main.dir/home/iwo/pico/pico-sdk/src/rp2_common/pico_standard_link/crt0.S.obj
 .debug_info    0x0000000000019e5b      0x2c6 CMakeFiles/main.dir/home/iwo/pico/pico-sdk/src/rp2_common/pico_standard_link/binary_info.c.obj
 .debug_info    0x000000000001a121     0x1b7b CMakeFiles/main.dir/home/iwo/pico/pico-sdk/src/rp2_common/pico_stdio/stdio.c.obj
 .debug_info    0x000000000001bc9c     0x1115 CMakeFiles/main.dir/home/iwo/pico/pico-sdk/src/rp2_common/pico_stdio_usb/reset_interface.c.obj
 .debug_info    0x000000000001cdb1     0x172e CMakeFiles/main.dir/home/iwo/pico/pico-sdk/src/rp2_common/pico_stdio_usb/stdio_usb.c.obj
 .debug_info    0x000000000001e4df      0xf4a CMakeFiles/main.dir/home/iwo/pico/pico-sdk/src/rp2_common/pico_stdio_usb/stdio_usb_descriptors.c.obj
 .debug_info    0x000000000001f429     0x217b CMakeFiles/main.dir/home/iwo/pico/pico-sdk/lib/tinyusb/src/portable/raspberrypi/rp2040/dcd_rp2040.c.obj
 .debug_info    0x00000000000215a4     0x1675 CMakeFiles/main.dir/home/iwo/pico/pico-sdk/lib/tinyusb/src/portable/raspberrypi/rp2040/rp2040_usb.c.obj
 .debug_info    0x0000000000022c19     0x4c6f CMakeFiles/main.dir/home/iwo/pico/pico-sdk/lib/tinyusb/src/device/usbd.c.obj
 .debug_info    0x0000000000027888     0x1334 CMakeFiles/main.dir/home/iwo/pico/pico-sdk/lib/tinyusb/src/device/usbd_control.c.obj
 .debug_info    0x0000000000028bbc     0x246b CMakeFiles/main.dir/home/iwo/pico/pico-sdk/lib/tinyusb/src/class/cdc/cdc_device.c.obj
 .debug_info    0x000000000002b027     0x1588 CMakeFiles/main.dir/home/iwo/pico/pico-sdk/lib/tinyusb/src/tusb.c.obj
 .debug_info    0x000000000002c5af     0x3284 CMakeFiles/main.dir/home/iwo/pico/pico-sdk/lib/tinyusb/src/common/tusb_fifo.c.obj
 .debug_info    0x000000000002f833      0x24b CMakeFiles/main.dir/home/iwo/pico/pico-sdk/src/rp2_common/pico_unique_id/unique_id.c.obj
 .debug_info    0x000000000002fa7e      0xef2 CMakeFiles/main.dir/home/iwo/pico/pico-sdk/src/rp2_common/hardware_flash/flash.c.obj
 .debug_info    0x0000000000030970     0x1082 CMakeFiles/main.dir/home/iwo/pico/pico-sdk/src/rp2_common/hardware_spi/spi.c.obj
 .debug_info    0x00000000000319f2     0x1588 CMakeFiles/main.dir/home/iwo/pico/pico-sdk/src/rp2_common/hardware_i2c/i2c.c.obj
 .debug_info    0x0000000000032f7a     0x2ce8 examples/libexamples.a(LCD_2in_test.c.obj)
 .debug_info    0x0000000000035c62     0x1ae6 lib/LCD/libLCD.a(LCD_2in.c.obj)
 .debug_info    0x0000000000037748      0xe84 lib/Infrared/libInfrared.a(Infrared.c.obj)
 .debug_info    0x00000000000385cc     0x2926 lib/GUI/libGUI.a(GUI_Paint.c.obj)
 .debug_info    0x000000000003aef2      0x21b lib/Fonts/libFonts.a(font20.c.obj)
 .debug_info    0x000000000003b10d     0x201e lib/Config/libConfig.a(DEV_Config.c.obj)
 .debug_info    0x000000000003d12b       0x26 /usr/lib/gcc/arm-none-eabi/9.2.1/thumb/v6-m/nofp/libgcc.a(_dvmd_tls.o)
 .debug_info    0x000000000003d151      0x92a /usr/lib/gcc/arm-none-eabi/9.2.1/../../../arm-none-eabi/lib/thumb/v6-m/nofp/libg.a(lib_a-impure.o)
 .debug_info    0x000000000003da7b      0x9b6 /usr/lib/gcc/arm-none-eabi/9.2.1/../../../arm-none-eabi/lib/thumb/v6-m/nofp/libg.a(lib_a-malloc.o)
 .debug_info    0x000000000003e431      0xf1a /usr/lib/gcc/arm-none-eabi/9.2.1/../../../arm-none-eabi/lib/thumb/v6-m/nofp/libg.a(lib_a-mallocr.o)
 .debug_info    0x000000000003f34b      0x961 /usr/lib/gcc/arm-none-eabi/9.2.1/../../../arm-none-eabi/lib/thumb/v6-m/nofp/libg.a(lib_a-mlock.o)
 .debug_info    0x000000000003fcac      0x9fb /usr/lib/gcc/arm-none-eabi/9.2.1/../../../arm-none-eabi/lib/thumb/v6-m/nofp/libg.a(lib_a-sbrkr.o)
 .debug_info    0x00000000000406a7      0x973 /usr/lib/gcc/arm-none-eabi/9.2.1/../../../arm-none-eabi/lib/thumb/v6-m/nofp/libg.a(lib_a-strlen-stub.o)
 .debug_info    0x000000000004101a      0xd99 /usr/lib/gcc/arm-none-eabi/9.2.1/../../../arm-none-eabi/lib/thumb/v6-m/nofp/libg.a(lib_a-freer.o)
 .debug_info    0x0000000000041db3      0xac2 /usr/lib/gcc/arm-none-eabi/9.2.1/../../../arm-none-eabi/lib/thumb/v6-m/nofp/libg.a(lib_a-reent.o)

.debug_abbrev   0x0000000000000000     0xa84c
 .debug_abbrev  0x0000000000000000      0x236 CMakeFiles/main.dir/main.c.obj
 .debug_abbrev  0x0000000000000236      0x2c4 CMakeFiles/main.dir/home/iwo/pico/pico-sdk/src/rp2_common/hardware_gpio/gpio.c.obj
 .debug_abbrev  0x00000000000004fa      0x2e9 CMakeFiles/main.dir/home/iwo/pico/pico-sdk/src/rp2_common/hardware_claim/claim.c.obj
 .debug_abbrev  0x00000000000007e3       0xeb CMakeFiles/main.dir/home/iwo/pico/pico-sdk/src/rp2_common/pico_platform/platform.c.obj
 .debug_abbrev  0x00000000000008ce      0x21b CMakeFiles/main.dir/home/iwo/pico/pico-sdk/src/rp2_common/hardware_sync/sync.c.obj
 .debug_abbrev  0x0000000000000ae9      0x628 CMakeFiles/main.dir/home/iwo/pico/pico-sdk/src/common/pico_time/time.c.obj
 .debug_abbrev  0x0000000000001111      0x3b1 CMakeFiles/main.dir/home/iwo/pico/pico-sdk/src/rp2_common/hardware_timer/timer.c.obj
 .debug_abbrev  0x00000000000014c2      0x138 CMakeFiles/main.dir/home/iwo/pico/pico-sdk/src/common/pico_sync/lock_core.c.obj
 .debug_abbrev  0x00000000000015fa      0x3aa CMakeFiles/main.dir/home/iwo/pico/pico-sdk/src/common/pico_sync/mutex.c.obj
 .debug_abbrev  0x00000000000019a4      0x1cc CMakeFiles/main.dir/home/iwo/pico/pico-sdk/src/common/pico_sync/critical_section.c.obj
 .debug_abbrev  0x0000000000001b70      0x3ad CMakeFiles/main.dir/home/iwo/pico/pico-sdk/src/common/pico_util/pheap.c.obj
 .debug_abbrev  0x0000000000001f1d      0x4a1 CMakeFiles/main.dir/home/iwo/pico/pico-sdk/src/rp2_common/pico_runtime/runtime.c.obj
 .debug_abbrev  0x00000000000023be      0x3b6 CMakeFiles/main.dir/home/iwo/pico/pico-sdk/src/rp2_common/hardware_clocks/clocks.c.obj
 .debug_abbrev  0x0000000000002774      0x4dc CMakeFiles/main.dir/home/iwo/pico/pico-sdk/src/rp2_common/hardware_irq/irq.c.obj
 .debug_abbrev  0x0000000000002c50      0x1ee CMakeFiles/main.dir/home/iwo/pico/pico-sdk/src/rp2_common/hardware_pll/pll.c.obj
 .debug_abbrev  0x0000000000002e3e      0x2cf CMakeFiles/main.dir/home/iwo/pico/pico-sdk/src/rp2_common/hardware_watchdog/watchdog.c.obj
 .debug_abbrev  0x000000000000310d      0x109 CMakeFiles/main.dir/home/iwo/pico/pico-sdk/src/rp2_common/hardware_xosc/xosc.c.obj
 .debug_abbrev  0x0000000000003216      0x4a1 CMakeFiles/main.dir/home/iwo/pico/pico-sdk/src/rp2_common/pico_printf/printf.c.obj
 .debug_abbrev  0x00000000000036b7       0x12 CMakeFiles/main.dir/home/iwo/pico/pico-sdk/src/rp2_common/pico_bit_ops/bit_ops_aeabi.S.obj
 .debug_abbrev  0x00000000000036c9      0x13b CMakeFiles/main.dir/home/iwo/pico/pico-sdk/src/rp2_common/pico_bootrom/bootrom.c.obj
 .debug_abbrev  0x0000000000003804       0x12 CMakeFiles/main.dir/home/iwo/pico/pico-sdk/src/rp2_common/pico_divider/divider.S.obj
 .debug_abbrev  0x0000000000003816       0x12 CMakeFiles/main.dir/home/iwo/pico/pico-sdk/src/rp2_common/pico_double/double_aeabi.S.obj
 .debug_abbrev  0x0000000000003828      0x2c2 CMakeFiles/main.dir/home/iwo/pico/pico-sdk/src/rp2_common/pico_double/double_init_rom.c.obj
 .debug_abbrev  0x0000000000003aea      0x46c CMakeFiles/main.dir/home/iwo/pico/pico-sdk/src/rp2_common/pico_double/double_math.c.obj
 .debug_abbrev  0x0000000000003f56       0x12 CMakeFiles/main.dir/home/iwo/pico/pico-sdk/src/rp2_common/pico_double/double_v1_rom_shim.S.obj
 .debug_abbrev  0x0000000000003f68       0x14 CMakeFiles/main.dir/home/iwo/pico/pico-sdk/src/rp2_common/pico_int64_ops/pico_int64_ops_aeabi.S.obj
 .debug_abbrev  0x0000000000003f7c       0x12 CMakeFiles/main.dir/home/iwo/pico/pico-sdk/src/rp2_common/pico_float/float_aeabi.S.obj
 .debug_abbrev  0x0000000000003f8e      0x2d5 CMakeFiles/main.dir/home/iwo/pico/pico-sdk/src/rp2_common/pico_float/float_init_rom.c.obj
 .debug_abbrev  0x0000000000004263       0x12 CMakeFiles/main.dir/home/iwo/pico/pico-sdk/src/rp2_common/pico_float/float_v1_rom_shim.S.obj
 .debug_abbrev  0x0000000000004275      0x2bb CMakeFiles/main.dir/home/iwo/pico/pico-sdk/src/rp2_common/pico_malloc/pico_malloc.c.obj
 .debug_abbrev  0x0000000000004530       0x12 CMakeFiles/main.dir/home/iwo/pico/pico-sdk/src/rp2_common/pico_mem_ops/mem_ops_aeabi.S.obj
 .debug_abbrev  0x0000000000004542       0x12 CMakeFiles/main.dir/home/iwo/pico/pico-sdk/src/rp2_common/pico_standard_link/crt0.S.obj
 .debug_abbrev  0x0000000000004554       0xad CMakeFiles/main.dir/home/iwo/pico/pico-sdk/src/rp2_common/pico_standard_link/binary_info.c.obj
 .debug_abbrev  0x0000000000004601      0x583 CMakeFiles/main.dir/home/iwo/pico/pico-sdk/src/rp2_common/pico_stdio/stdio.c.obj
 .debug_abbrev  0x0000000000004b84      0x3c1 CMakeFiles/main.dir/home/iwo/pico/pico-sdk/src/rp2_common/pico_stdio_usb/reset_interface.c.obj
 .debug_abbrev  0x0000000000004f45      0x4bc CMakeFiles/main.dir/home/iwo/pico/pico-sdk/src/rp2_common/pico_stdio_usb/stdio_usb.c.obj
 .debug_abbrev  0x0000000000005401      0x279 CMakeFiles/main.dir/home/iwo/pico/pico-sdk/src/rp2_common/pico_stdio_usb/stdio_usb_descriptors.c.obj
 .debug_abbrev  0x000000000000567a      0x490 CMakeFiles/main.dir/home/iwo/pico/pico-sdk/lib/tinyusb/src/portable/raspberrypi/rp2040/dcd_rp2040.c.obj
 .debug_abbrev  0x0000000000005b0a      0x440 CMakeFiles/main.dir/home/iwo/pico/pico-sdk/lib/tinyusb/src/portable/raspberrypi/rp2040/rp2040_usb.c.obj
 .debug_abbrev  0x0000000000005f4a      0x5ed CMakeFiles/main.dir/home/iwo/pico/pico-sdk/lib/tinyusb/src/device/usbd.c.obj
 .debug_abbrev  0x0000000000006537      0x3ea CMakeFiles/main.dir/home/iwo/pico/pico-sdk/lib/tinyusb/src/device/usbd_control.c.obj
 .debug_abbrev  0x0000000000006921      0x51b CMakeFiles/main.dir/home/iwo/pico/pico-sdk/lib/tinyusb/src/class/cdc/cdc_device.c.obj
 .debug_abbrev  0x0000000000006e3c      0x3cc CMakeFiles/main.dir/home/iwo/pico/pico-sdk/lib/tinyusb/src/tusb.c.obj
 .debug_abbrev  0x0000000000007208      0x4d7 CMakeFiles/main.dir/home/iwo/pico/pico-sdk/lib/tinyusb/src/common/tusb_fifo.c.obj
 .debug_abbrev  0x00000000000076df      0x163 CMakeFiles/main.dir/home/iwo/pico/pico-sdk/src/rp2_common/pico_unique_id/unique_id.c.obj
 .debug_abbrev  0x0000000000007842      0x2b6 CMakeFiles/main.dir/home/iwo/pico/pico-sdk/src/rp2_common/hardware_flash/flash.c.obj
 .debug_abbrev  0x0000000000007af8      0x2bb CMakeFiles/main.dir/home/iwo/pico/pico-sdk/src/rp2_common/hardware_spi/spi.c.obj
 .debug_abbrev  0x0000000000007db3      0x48f CMakeFiles/main.dir/home/iwo/pico/pico-sdk/src/rp2_common/hardware_i2c/i2c.c.obj
 .debug_abbrev  0x0000000000008242      0x465 examples/libexamples.a(LCD_2in_test.c.obj)
 .debug_abbrev  0x00000000000086a7      0x341 lib/LCD/libLCD.a(LCD_2in.c.obj)
 .debug_abbrev  0x00000000000089e8      0x2dc lib/Infrared/libInfrared.a(Infrared.c.obj)
 .debug_abbrev  0x0000000000008cc4      0x380 lib/GUI/libGUI.a(GUI_Paint.c.obj)
 .debug_abbrev  0x0000000000009044       0xc6 lib/Fonts/libFonts.a(font20.c.obj)
 .debug_abbrev  0x000000000000910a      0x488 lib/Config/libConfig.a(DEV_Config.c.obj)
 .debug_abbrev  0x0000000000009592       0x14 /usr/lib/gcc/arm-none-eabi/9.2.1/thumb/v6-m/nofp/libgcc.a(_dvmd_tls.o)
 .debug_abbrev  0x00000000000095a6      0x1b8 /usr/lib/gcc/arm-none-eabi/9.2.1/../../../arm-none-eabi/lib/thumb/v6-m/nofp/libg.a(lib_a-impure.o)
 .debug_abbrev  0x000000000000975e      0x22d /usr/lib/gcc/arm-none-eabi/9.2.1/../../../arm-none-eabi/lib/thumb/v6-m/nofp/libg.a(lib_a-malloc.o)
 .debug_abbrev  0x000000000000998b      0x321 /usr/lib/gcc/arm-none-eabi/9.2.1/../../../arm-none-eabi/lib/thumb/v6-m/nofp/libg.a(lib_a-mallocr.o)
 .debug_abbrev  0x0000000000009cac      0x203 /usr/lib/gcc/arm-none-eabi/9.2.1/../../../arm-none-eabi/lib/thumb/v6-m/nofp/libg.a(lib_a-mlock.o)
 .debug_abbrev  0x0000000000009eaf      0x250 /usr/lib/gcc/arm-none-eabi/9.2.1/../../../arm-none-eabi/lib/thumb/v6-m/nofp/libg.a(lib_a-sbrkr.o)
 .debug_abbrev  0x000000000000a0ff      0x1e8 /usr/lib/gcc/arm-none-eabi/9.2.1/../../../arm-none-eabi/lib/thumb/v6-m/nofp/libg.a(lib_a-strlen-stub.o)
 .debug_abbrev  0x000000000000a2e7      0x2b9 /usr/lib/gcc/arm-none-eabi/9.2.1/../../../arm-none-eabi/lib/thumb/v6-m/nofp/libg.a(lib_a-freer.o)
 .debug_abbrev  0x000000000000a5a0      0x2ac /usr/lib/gcc/arm-none-eabi/9.2.1/../../../arm-none-eabi/lib/thumb/v6-m/nofp/libg.a(lib_a-reent.o)

.debug_aranges  0x0000000000000000     0x1910
 .debug_aranges
                0x0000000000000000       0x20 CMakeFiles/main.dir/main.c.obj
 .debug_aranges
                0x0000000000000020       0xd8 CMakeFiles/main.dir/home/iwo/pico/pico-sdk/src/rp2_common/hardware_gpio/gpio.c.obj
 .debug_aranges
                0x00000000000000f8       0x48 CMakeFiles/main.dir/home/iwo/pico/pico-sdk/src/rp2_common/hardware_claim/claim.c.obj
 .debug_aranges
                0x0000000000000140       0x28 CMakeFiles/main.dir/home/iwo/pico/pico-sdk/src/rp2_common/pico_platform/platform.c.obj
 .debug_aranges
                0x0000000000000168       0x58 CMakeFiles/main.dir/home/iwo/pico/pico-sdk/src/rp2_common/hardware_sync/sync.c.obj
 .debug_aranges
                0x00000000000001c0       0xd0 CMakeFiles/main.dir/home/iwo/pico/pico-sdk/src/common/pico_time/time.c.obj
 .debug_aranges
                0x0000000000000290       0x78 CMakeFiles/main.dir/home/iwo/pico/pico-sdk/src/rp2_common/hardware_timer/timer.c.obj
 .debug_aranges
                0x0000000000000308       0x20 CMakeFiles/main.dir/home/iwo/pico/pico-sdk/src/common/pico_sync/lock_core.c.obj
 .debug_aranges
                0x0000000000000328       0x88 CMakeFiles/main.dir/home/iwo/pico/pico-sdk/src/common/pico_sync/mutex.c.obj
 .debug_aranges
                0x00000000000003b0       0x30 CMakeFiles/main.dir/home/iwo/pico/pico-sdk/src/common/pico_sync/critical_section.c.obj
 .debug_aranges
                0x00000000000003e0       0x78 CMakeFiles/main.dir/home/iwo/pico/pico-sdk/src/common/pico_util/pheap.c.obj
 .debug_aranges
                0x0000000000000458       0x60 CMakeFiles/main.dir/home/iwo/pico/pico-sdk/src/rp2_common/pico_runtime/runtime.c.obj
 .debug_aranges
                0x00000000000004b8       0x70 CMakeFiles/main.dir/home/iwo/pico/pico-sdk/src/rp2_common/hardware_clocks/clocks.c.obj
 .debug_aranges
                0x0000000000000528       0x98 CMakeFiles/main.dir/home/iwo/pico/pico-sdk/src/rp2_common/hardware_irq/irq.c.obj
 .debug_aranges
                0x00000000000005c0       0x28 CMakeFiles/main.dir/home/iwo/pico/pico-sdk/src/rp2_common/hardware_pll/pll.c.obj
 .debug_aranges
                0x00000000000005e8       0x58 CMakeFiles/main.dir/home/iwo/pico/pico-sdk/src/rp2_common/hardware_watchdog/watchdog.c.obj
 .debug_aranges
                0x0000000000000640       0x30 CMakeFiles/main.dir/home/iwo/pico/pico-sdk/src/rp2_common/hardware_xosc/xosc.c.obj
 .debug_aranges
                0x0000000000000670       0x90 CMakeFiles/main.dir/home/iwo/pico/pico-sdk/src/rp2_common/pico_printf/printf.c.obj
 .debug_aranges
                0x0000000000000700       0x68 CMakeFiles/main.dir/home/iwo/pico/pico-sdk/src/rp2_common/pico_bit_ops/bit_ops_aeabi.S.obj
 .debug_aranges
                0x0000000000000768       0x30 CMakeFiles/main.dir/home/iwo/pico/pico-sdk/src/rp2_common/pico_bootrom/bootrom.c.obj
 .debug_aranges
                0x0000000000000798       0x40 CMakeFiles/main.dir/home/iwo/pico/pico-sdk/src/rp2_common/pico_divider/divider.S.obj
 .debug_aranges
                0x00000000000007d8      0x140 CMakeFiles/main.dir/home/iwo/pico/pico-sdk/src/rp2_common/pico_double/double_aeabi.S.obj
 .debug_aranges
                0x0000000000000918       0x20 CMakeFiles/main.dir/home/iwo/pico/pico-sdk/src/rp2_common/pico_double/double_init_rom.c.obj
 .debug_aranges
                0x0000000000000938      0x130 CMakeFiles/main.dir/home/iwo/pico/pico-sdk/src/rp2_common/pico_double/double_math.c.obj
 .debug_aranges
                0x0000000000000a68       0xc8 CMakeFiles/main.dir/home/iwo/pico/pico-sdk/src/rp2_common/pico_double/double_v1_rom_shim.S.obj
 .debug_aranges
                0x0000000000000b30       0x20 CMakeFiles/main.dir/home/iwo/pico/pico-sdk/src/rp2_common/pico_int64_ops/pico_int64_ops_aeabi.S.obj
 .debug_aranges
                0x0000000000000b50      0x130 CMakeFiles/main.dir/home/iwo/pico/pico-sdk/src/rp2_common/pico_float/float_aeabi.S.obj
 .debug_aranges
                0x0000000000000c80       0x20 CMakeFiles/main.dir/home/iwo/pico/pico-sdk/src/rp2_common/pico_float/float_init_rom.c.obj
 .debug_aranges
                0x0000000000000ca0       0x50 CMakeFiles/main.dir/home/iwo/pico/pico-sdk/src/rp2_common/pico_float/float_v1_rom_shim.S.obj
 .debug_aranges
                0x0000000000000cf0       0x30 CMakeFiles/main.dir/home/iwo/pico/pico-sdk/src/rp2_common/pico_malloc/pico_malloc.c.obj
 .debug_aranges
                0x0000000000000d20       0x38 CMakeFiles/main.dir/home/iwo/pico/pico-sdk/src/rp2_common/pico_mem_ops/mem_ops_aeabi.S.obj
 .debug_aranges
                0x0000000000000d58       0x28 CMakeFiles/main.dir/home/iwo/pico/pico-sdk/src/rp2_common/pico_standard_link/crt0.S.obj
 .debug_aranges
                0x0000000000000d80       0x18 CMakeFiles/main.dir/home/iwo/pico/pico-sdk/src/rp2_common/pico_standard_link/binary_info.c.obj
 .debug_aranges
                0x0000000000000d98       0xd0 CMakeFiles/main.dir/home/iwo/pico/pico-sdk/src/rp2_common/pico_stdio/stdio.c.obj
 .debug_aranges
                0x0000000000000e68       0x50 CMakeFiles/main.dir/home/iwo/pico/pico-sdk/src/rp2_common/pico_stdio_usb/reset_interface.c.obj
 .debug_aranges
                0x0000000000000eb8       0x48 CMakeFiles/main.dir/home/iwo/pico/pico-sdk/src/rp2_common/pico_stdio_usb/stdio_usb.c.obj
 .debug_aranges
                0x0000000000000f00       0x30 CMakeFiles/main.dir/home/iwo/pico/pico-sdk/src/rp2_common/pico_stdio_usb/stdio_usb_descriptors.c.obj
 .debug_aranges
                0x0000000000000f30       0xd0 CMakeFiles/main.dir/home/iwo/pico/pico-sdk/lib/tinyusb/src/portable/raspberrypi/rp2040/dcd_rp2040.c.obj
 .debug_aranges
                0x0000000000001000       0x60 CMakeFiles/main.dir/home/iwo/pico/pico-sdk/lib/tinyusb/src/portable/raspberrypi/rp2040/rp2040_usb.c.obj
 .debug_aranges
                0x0000000000001060      0x128 CMakeFiles/main.dir/home/iwo/pico/pico-sdk/lib/tinyusb/src/device/usbd.c.obj
 .debug_aranges
                0x0000000000001188       0x50 CMakeFiles/main.dir/home/iwo/pico/pico-sdk/lib/tinyusb/src/device/usbd_control.c.obj
 .debug_aranges
                0x00000000000011d8       0xa8 CMakeFiles/main.dir/home/iwo/pico/pico-sdk/lib/tinyusb/src/class/cdc/cdc_device.c.obj
 .debug_aranges
                0x0000000000001280       0x50 CMakeFiles/main.dir/home/iwo/pico/pico-sdk/lib/tinyusb/src/tusb.c.obj
 .debug_aranges
                0x00000000000012d0      0x118 CMakeFiles/main.dir/home/iwo/pico/pico-sdk/lib/tinyusb/src/common/tusb_fifo.c.obj
 .debug_aranges
                0x00000000000013e8       0x30 CMakeFiles/main.dir/home/iwo/pico/pico-sdk/src/rp2_common/pico_unique_id/unique_id.c.obj
 .debug_aranges
                0x0000000000001418       0x50 CMakeFiles/main.dir/home/iwo/pico/pico-sdk/src/rp2_common/hardware_flash/flash.c.obj
 .debug_aranges
                0x0000000000001468       0x68 CMakeFiles/main.dir/home/iwo/pico/pico-sdk/src/rp2_common/hardware_spi/spi.c.obj
 .debug_aranges
                0x00000000000014d0       0x78 CMakeFiles/main.dir/home/iwo/pico/pico-sdk/src/rp2_common/hardware_i2c/i2c.c.obj
 .debug_aranges
                0x0000000000001548       0x98 examples/libexamples.a(LCD_2in_test.c.obj)
 .debug_aranges
                0x00000000000015e0       0x80 lib/LCD/libLCD.a(LCD_2in.c.obj)
 .debug_aranges
                0x0000000000001660       0x28 lib/Infrared/libInfrared.a(Infrared.c.obj)
 .debug_aranges
                0x0000000000001688       0xc8 lib/GUI/libGUI.a(GUI_Paint.c.obj)
 .debug_aranges
                0x0000000000001750       0x18 lib/Fonts/libFonts.a(font20.c.obj)
 .debug_aranges
                0x0000000000001768       0x90 lib/Config/libConfig.a(DEV_Config.c.obj)
 .debug_aranges
                0x00000000000017f8       0x20 /usr/lib/gcc/arm-none-eabi/9.2.1/thumb/v6-m/nofp/libgcc.a(_dvmd_tls.o)
 .debug_aranges
                0x0000000000001818       0x18 /usr/lib/gcc/arm-none-eabi/9.2.1/../../../arm-none-eabi/lib/thumb/v6-m/nofp/libg.a(lib_a-impure.o)
 .debug_aranges
                0x0000000000001830       0x20 /usr/lib/gcc/arm-none-eabi/9.2.1/../../../arm-none-eabi/lib/thumb/v6-m/nofp/libg.a(lib_a-malloc.o)
 .debug_aranges
                0x0000000000001850       0x20 /usr/lib/gcc/arm-none-eabi/9.2.1/../../../arm-none-eabi/lib/thumb/v6-m/nofp/libg.a(lib_a-mallocr.o)
 .debug_aranges
                0x0000000000001870       0x20 /usr/lib/gcc/arm-none-eabi/9.2.1/../../../arm-none-eabi/lib/thumb/v6-m/nofp/libg.a(lib_a-mlock.o)
 .debug_aranges
                0x0000000000001890       0x20 /usr/lib/gcc/arm-none-eabi/9.2.1/../../../arm-none-eabi/lib/thumb/v6-m/nofp/libg.a(lib_a-sbrkr.o)
 .debug_aranges
                0x00000000000018b0       0x20 /usr/lib/gcc/arm-none-eabi/9.2.1/../../../arm-none-eabi/lib/thumb/v6-m/nofp/libg.a(lib_a-strlen-stub.o)
 .debug_aranges
                0x00000000000018d0       0x20 /usr/lib/gcc/arm-none-eabi/9.2.1/../../../arm-none-eabi/lib/thumb/v6-m/nofp/libg.a(lib_a-freer.o)
 .debug_aranges
                0x00000000000018f0       0x20 /usr/lib/gcc/arm-none-eabi/9.2.1/../../../arm-none-eabi/lib/thumb/v6-m/nofp/libg.a(lib_a-reent.o)

.debug_ranges   0x0000000000000000     0x5260
 .debug_ranges  0x0000000000000000       0x10 CMakeFiles/main.dir/main.c.obj
 .debug_ranges  0x0000000000000010       0xe0 CMakeFiles/main.dir/home/iwo/pico/pico-sdk/src/rp2_common/hardware_gpio/gpio.c.obj
 .debug_ranges  0x00000000000000f0       0xd8 CMakeFiles/main.dir/home/iwo/pico/pico-sdk/src/rp2_common/hardware_claim/claim.c.obj
 .debug_ranges  0x00000000000001c8       0x18 CMakeFiles/main.dir/home/iwo/pico/pico-sdk/src/rp2_common/pico_platform/platform.c.obj
 .debug_ranges  0x00000000000001e0       0xf0 CMakeFiles/main.dir/home/iwo/pico/pico-sdk/src/rp2_common/hardware_sync/sync.c.obj
 .debug_ranges  0x00000000000002d0      0xbc0 CMakeFiles/main.dir/home/iwo/pico/pico-sdk/src/common/pico_time/time.c.obj
 .debug_ranges  0x0000000000000e90      0x320 CMakeFiles/main.dir/home/iwo/pico/pico-sdk/src/rp2_common/hardware_timer/timer.c.obj
 .debug_ranges  0x00000000000011b0       0x10 CMakeFiles/main.dir/home/iwo/pico/pico-sdk/src/common/pico_sync/lock_core.c.obj
 .debug_ranges  0x00000000000011c0      0xab8 CMakeFiles/main.dir/home/iwo/pico/pico-sdk/src/common/pico_sync/mutex.c.obj
 .debug_ranges  0x0000000000001c78       0x38 CMakeFiles/main.dir/home/iwo/pico/pico-sdk/src/common/pico_sync/critical_section.c.obj
 .debug_ranges  0x0000000000001cb0      0x230 CMakeFiles/main.dir/home/iwo/pico/pico-sdk/src/common/pico_util/pheap.c.obj
 .debug_ranges  0x0000000000001ee0       0x80 CMakeFiles/main.dir/home/iwo/pico/pico-sdk/src/rp2_common/pico_runtime/runtime.c.obj
 .debug_ranges  0x0000000000001f60       0x60 CMakeFiles/main.dir/home/iwo/pico/pico-sdk/src/rp2_common/hardware_clocks/clocks.c.obj
 .debug_ranges  0x0000000000001fc0      0x3d0 CMakeFiles/main.dir/home/iwo/pico/pico-sdk/src/rp2_common/hardware_irq/irq.c.obj
 .debug_ranges  0x0000000000002390       0x30 CMakeFiles/main.dir/home/iwo/pico/pico-sdk/src/rp2_common/hardware_pll/pll.c.obj
 .debug_ranges  0x00000000000023c0       0x48 CMakeFiles/main.dir/home/iwo/pico/pico-sdk/src/rp2_common/hardware_watchdog/watchdog.c.obj
 .debug_ranges  0x0000000000002408       0x20 CMakeFiles/main.dir/home/iwo/pico/pico-sdk/src/rp2_common/hardware_xosc/xosc.c.obj
 .debug_ranges  0x0000000000002428      0x120 CMakeFiles/main.dir/home/iwo/pico/pico-sdk/src/rp2_common/pico_printf/printf.c.obj
 .debug_ranges  0x0000000000002548       0x60 CMakeFiles/main.dir/home/iwo/pico/pico-sdk/src/rp2_common/pico_bit_ops/bit_ops_aeabi.S.obj
 .debug_ranges  0x00000000000025a8       0x38 CMakeFiles/main.dir/home/iwo/pico/pico-sdk/src/rp2_common/pico_bootrom/bootrom.c.obj
 .debug_ranges  0x00000000000025e0       0x38 CMakeFiles/main.dir/home/iwo/pico/pico-sdk/src/rp2_common/pico_divider/divider.S.obj
 .debug_ranges  0x0000000000002618      0x138 CMakeFiles/main.dir/home/iwo/pico/pico-sdk/src/rp2_common/pico_double/double_aeabi.S.obj
 .debug_ranges  0x0000000000002750       0x30 CMakeFiles/main.dir/home/iwo/pico/pico-sdk/src/rp2_common/pico_double/double_init_rom.c.obj
 .debug_ranges  0x0000000000002780      0xca8 CMakeFiles/main.dir/home/iwo/pico/pico-sdk/src/rp2_common/pico_double/double_math.c.obj
 .debug_ranges  0x0000000000003428       0xc0 CMakeFiles/main.dir/home/iwo/pico/pico-sdk/src/rp2_common/pico_double/double_v1_rom_shim.S.obj
 .debug_ranges  0x00000000000034e8      0x128 CMakeFiles/main.dir/home/iwo/pico/pico-sdk/src/rp2_common/pico_float/float_aeabi.S.obj
 .debug_ranges  0x0000000000003610       0x28 CMakeFiles/main.dir/home/iwo/pico/pico-sdk/src/rp2_common/pico_float/float_init_rom.c.obj
 .debug_ranges  0x0000000000003638       0x48 CMakeFiles/main.dir/home/iwo/pico/pico-sdk/src/rp2_common/pico_float/float_v1_rom_shim.S.obj
 .debug_ranges  0x0000000000003680       0x50 CMakeFiles/main.dir/home/iwo/pico/pico-sdk/src/rp2_common/pico_malloc/pico_malloc.c.obj
 .debug_ranges  0x00000000000036d0       0x30 CMakeFiles/main.dir/home/iwo/pico/pico-sdk/src/rp2_common/pico_mem_ops/mem_ops_aeabi.S.obj
 .debug_ranges  0x0000000000003700       0x20 CMakeFiles/main.dir/home/iwo/pico/pico-sdk/src/rp2_common/pico_standard_link/crt0.S.obj
 .debug_ranges  0x0000000000003720      0x1b0 CMakeFiles/main.dir/home/iwo/pico/pico-sdk/src/rp2_common/pico_stdio/stdio.c.obj
 .debug_ranges  0x00000000000038d0       0x40 CMakeFiles/main.dir/home/iwo/pico/pico-sdk/src/rp2_common/pico_stdio_usb/reset_interface.c.obj
 .debug_ranges  0x0000000000003910       0xe0 CMakeFiles/main.dir/home/iwo/pico/pico-sdk/src/rp2_common/pico_stdio_usb/stdio_usb.c.obj
 .debug_ranges  0x00000000000039f0       0x20 CMakeFiles/main.dir/home/iwo/pico/pico-sdk/src/rp2_common/pico_stdio_usb/stdio_usb_descriptors.c.obj
 .debug_ranges  0x0000000000003a10       0xf0 CMakeFiles/main.dir/home/iwo/pico/pico-sdk/lib/tinyusb/src/portable/raspberrypi/rp2040/dcd_rp2040.c.obj
 .debug_ranges  0x0000000000003b00       0x68 CMakeFiles/main.dir/home/iwo/pico/pico-sdk/lib/tinyusb/src/portable/raspberrypi/rp2040/rp2040_usb.c.obj
 .debug_ranges  0x0000000000003b68      0xb60 CMakeFiles/main.dir/home/iwo/pico/pico-sdk/lib/tinyusb/src/device/usbd.c.obj
 .debug_ranges  0x00000000000046c8       0x88 CMakeFiles/main.dir/home/iwo/pico/pico-sdk/lib/tinyusb/src/device/usbd_control.c.obj
 .debug_ranges  0x0000000000004750      0x110 CMakeFiles/main.dir/home/iwo/pico/pico-sdk/lib/tinyusb/src/class/cdc/cdc_device.c.obj
 .debug_ranges  0x0000000000004860       0xd0 CMakeFiles/main.dir/home/iwo/pico/pico-sdk/lib/tinyusb/src/tusb.c.obj
 .debug_ranges  0x0000000000004930      0x120 CMakeFiles/main.dir/home/iwo/pico/pico-sdk/lib/tinyusb/src/common/tusb_fifo.c.obj
 .debug_ranges  0x0000000000004a50       0x38 CMakeFiles/main.dir/home/iwo/pico/pico-sdk/src/rp2_common/pico_unique_id/unique_id.c.obj
 .debug_ranges  0x0000000000004a88       0x58 CMakeFiles/main.dir/home/iwo/pico/pico-sdk/src/rp2_common/hardware_flash/flash.c.obj
 .debug_ranges  0x0000000000004ae0      0x270 CMakeFiles/main.dir/home/iwo/pico/pico-sdk/src/rp2_common/hardware_spi/spi.c.obj
 .debug_ranges  0x0000000000004d50      0x198 CMakeFiles/main.dir/home/iwo/pico/pico-sdk/src/rp2_common/hardware_i2c/i2c.c.obj
 .debug_ranges  0x0000000000004ee8       0x88 examples/libexamples.a(LCD_2in_test.c.obj)
 .debug_ranges  0x0000000000004f70       0x70 lib/LCD/libLCD.a(LCD_2in.c.obj)
 .debug_ranges  0x0000000000004fe0       0x18 lib/Infrared/libInfrared.a(Infrared.c.obj)
 .debug_ranges  0x0000000000004ff8      0x118 lib/GUI/libGUI.a(GUI_Paint.c.obj)
 .debug_ranges  0x0000000000005110      0x118 lib/Config/libConfig.a(DEV_Config.c.obj)
 .debug_ranges  0x0000000000005228       0x38 /usr/lib/gcc/arm-none-eabi/9.2.1/../../../arm-none-eabi/lib/thumb/v6-m/nofp/libg.a(lib_a-mallocr.o)

.debug_line     0x0000000000000000    0x1d46b
 .debug_line    0x0000000000000000      0x43f CMakeFiles/main.dir/main.c.obj
 .debug_line    0x000000000000043f      0x948 CMakeFiles/main.dir/home/iwo/pico/pico-sdk/src/rp2_common/hardware_gpio/gpio.c.obj
 .debug_line    0x0000000000000d87      0x3c6 CMakeFiles/main.dir/home/iwo/pico/pico-sdk/src/rp2_common/hardware_claim/claim.c.obj
 .debug_line    0x000000000000114d      0x1d8 CMakeFiles/main.dir/home/iwo/pico/pico-sdk/src/rp2_common/pico_platform/platform.c.obj
 .debug_line    0x0000000000001325      0x3bf CMakeFiles/main.dir/home/iwo/pico/pico-sdk/src/rp2_common/hardware_sync/sync.c.obj
 .debug_line    0x00000000000016e4     0x188e CMakeFiles/main.dir/home/iwo/pico/pico-sdk/src/common/pico_time/time.c.obj
 .debug_line    0x0000000000002f72      0xa22 CMakeFiles/main.dir/home/iwo/pico/pico-sdk/src/rp2_common/hardware_timer/timer.c.obj
 .debug_line    0x0000000000003994      0x1e0 CMakeFiles/main.dir/home/iwo/pico/pico-sdk/src/common/pico_sync/lock_core.c.obj
 .debug_line    0x0000000000003b74      0xf3c CMakeFiles/main.dir/home/iwo/pico/pico-sdk/src/common/pico_sync/mutex.c.obj
 .debug_line    0x0000000000004ab0      0x269 CMakeFiles/main.dir/home/iwo/pico/pico-sdk/src/common/pico_sync/critical_section.c.obj
 .debug_line    0x0000000000004d19      0x871 CMakeFiles/main.dir/home/iwo/pico/pico-sdk/src/common/pico_util/pheap.c.obj
 .debug_line    0x000000000000558a      0x7ec CMakeFiles/main.dir/home/iwo/pico/pico-sdk/src/rp2_common/pico_runtime/runtime.c.obj
 .debug_line    0x0000000000005d76      0x8ee CMakeFiles/main.dir/home/iwo/pico/pico-sdk/src/rp2_common/hardware_clocks/clocks.c.obj
 .debug_line    0x0000000000006664      0xe23 CMakeFiles/main.dir/home/iwo/pico/pico-sdk/src/rp2_common/hardware_irq/irq.c.obj
 .debug_line    0x0000000000007487      0x48f CMakeFiles/main.dir/home/iwo/pico/pico-sdk/src/rp2_common/hardware_pll/pll.c.obj
 .debug_line    0x0000000000007916      0x3fe CMakeFiles/main.dir/home/iwo/pico/pico-sdk/src/rp2_common/hardware_watchdog/watchdog.c.obj
 .debug_line    0x0000000000007d14      0x22c CMakeFiles/main.dir/home/iwo/pico/pico-sdk/src/rp2_common/hardware_xosc/xosc.c.obj
 .debug_line    0x0000000000007f40     0x116d CMakeFiles/main.dir/home/iwo/pico/pico-sdk/src/rp2_common/pico_printf/printf.c.obj
 .debug_line    0x00000000000090ad      0x144 CMakeFiles/main.dir/home/iwo/pico/pico-sdk/src/rp2_common/pico_bit_ops/bit_ops_aeabi.S.obj
 .debug_line    0x00000000000091f1      0x1b7 CMakeFiles/main.dir/home/iwo/pico/pico-sdk/src/rp2_common/pico_bootrom/bootrom.c.obj
 .debug_line    0x00000000000093a8      0x2cd CMakeFiles/main.dir/home/iwo/pico/pico-sdk/src/rp2_common/pico_divider/divider.S.obj
 .debug_line    0x0000000000009675      0x422 CMakeFiles/main.dir/home/iwo/pico/pico-sdk/src/rp2_common/pico_double/double_aeabi.S.obj
 .debug_line    0x0000000000009a97      0x2ee CMakeFiles/main.dir/home/iwo/pico/pico-sdk/src/rp2_common/pico_double/double_init_rom.c.obj
 .debug_line    0x0000000000009d85     0x2790 CMakeFiles/main.dir/home/iwo/pico/pico-sdk/src/rp2_common/pico_double/double_math.c.obj
 .debug_line    0x000000000000c515      0x698 CMakeFiles/main.dir/home/iwo/pico/pico-sdk/src/rp2_common/pico_double/double_v1_rom_shim.S.obj
 .debug_line    0x000000000000cbad       0x94 CMakeFiles/main.dir/home/iwo/pico/pico-sdk/src/rp2_common/pico_int64_ops/pico_int64_ops_aeabi.S.obj
 .debug_line    0x000000000000cc41      0x3d8 CMakeFiles/main.dir/home/iwo/pico/pico-sdk/src/rp2_common/pico_float/float_aeabi.S.obj
 .debug_line    0x000000000000d019      0x2d6 CMakeFiles/main.dir/home/iwo/pico/pico-sdk/src/rp2_common/pico_float/float_init_rom.c.obj
 .debug_line    0x000000000000d2ef      0x1c4 CMakeFiles/main.dir/home/iwo/pico/pico-sdk/src/rp2_common/pico_float/float_v1_rom_shim.S.obj
 .debug_line    0x000000000000d4b3      0x1e6 CMakeFiles/main.dir/home/iwo/pico/pico-sdk/src/rp2_common/pico_malloc/pico_malloc.c.obj
 .debug_line    0x000000000000d699       0xbe CMakeFiles/main.dir/home/iwo/pico/pico-sdk/src/rp2_common/pico_mem_ops/mem_ops_aeabi.S.obj
 .debug_line    0x000000000000d757       0xcf CMakeFiles/main.dir/home/iwo/pico/pico-sdk/src/rp2_common/pico_standard_link/crt0.S.obj
 .debug_line    0x000000000000d826      0x13e CMakeFiles/main.dir/home/iwo/pico/pico-sdk/src/rp2_common/pico_standard_link/binary_info.c.obj
 .debug_line    0x000000000000d964      0xc8a CMakeFiles/main.dir/home/iwo/pico/pico-sdk/src/rp2_common/pico_stdio/stdio.c.obj
 .debug_line    0x000000000000e5ee      0x53e CMakeFiles/main.dir/home/iwo/pico/pico-sdk/src/rp2_common/pico_stdio_usb/reset_interface.c.obj
 .debug_line    0x000000000000eb2c      0x865 CMakeFiles/main.dir/home/iwo/pico/pico-sdk/src/rp2_common/pico_stdio_usb/stdio_usb.c.obj
 .debug_line    0x000000000000f391      0x3d3 CMakeFiles/main.dir/home/iwo/pico/pico-sdk/src/rp2_common/pico_stdio_usb/stdio_usb_descriptors.c.obj
 .debug_line    0x000000000000f764      0xbe9 CMakeFiles/main.dir/home/iwo/pico/pico-sdk/lib/tinyusb/src/portable/raspberrypi/rp2040/dcd_rp2040.c.obj
 .debug_line    0x000000000001034d      0x8ea CMakeFiles/main.dir/home/iwo/pico/pico-sdk/lib/tinyusb/src/portable/raspberrypi/rp2040/rp2040_usb.c.obj
 .debug_line    0x0000000000010c37     0x23d1 CMakeFiles/main.dir/home/iwo/pico/pico-sdk/lib/tinyusb/src/device/usbd.c.obj
 .debug_line    0x0000000000013008      0x674 CMakeFiles/main.dir/home/iwo/pico/pico-sdk/lib/tinyusb/src/device/usbd_control.c.obj
 .debug_line    0x000000000001367c      0xf9c CMakeFiles/main.dir/home/iwo/pico/pico-sdk/lib/tinyusb/src/class/cdc/cdc_device.c.obj
 .debug_line    0x0000000000014618      0x80b CMakeFiles/main.dir/home/iwo/pico/pico-sdk/lib/tinyusb/src/tusb.c.obj
 .debug_line    0x0000000000014e23     0x1578 CMakeFiles/main.dir/home/iwo/pico/pico-sdk/lib/tinyusb/src/common/tusb_fifo.c.obj
 .debug_line    0x000000000001639b      0x2a5 CMakeFiles/main.dir/home/iwo/pico/pico-sdk/src/rp2_common/pico_unique_id/unique_id.c.obj
 .debug_line    0x0000000000016640      0x6c5 CMakeFiles/main.dir/home/iwo/pico/pico-sdk/src/rp2_common/hardware_flash/flash.c.obj
 .debug_line    0x0000000000016d05      0xc97 CMakeFiles/main.dir/home/iwo/pico/pico-sdk/src/rp2_common/hardware_spi/spi.c.obj
 .debug_line    0x000000000001799c      0xb88 CMakeFiles/main.dir/home/iwo/pico/pico-sdk/src/rp2_common/hardware_i2c/i2c.c.obj
 .debug_line    0x0000000000018524      0xa9d examples/libexamples.a(LCD_2in_test.c.obj)
 .debug_line    0x0000000000018fc1      0x74e lib/LCD/libLCD.a(LCD_2in.c.obj)
 .debug_line    0x000000000001970f      0x573 lib/Infrared/libInfrared.a(Infrared.c.obj)
 .debug_line    0x0000000000019c82     0x1888 lib/GUI/libGUI.a(GUI_Paint.c.obj)
 .debug_line    0x000000000001b50a       0x98 lib/Fonts/libFonts.a(font20.c.obj)
 .debug_line    0x000000000001b5a2      0x840 lib/Config/libConfig.a(DEV_Config.c.obj)
 .debug_line    0x000000000001bde2       0x60 /usr/lib/gcc/arm-none-eabi/9.2.1/thumb/v6-m/nofp/libgcc.a(_dvmd_tls.o)
 .debug_line    0x000000000001be42       0xe3 /usr/lib/gcc/arm-none-eabi/9.2.1/../../../arm-none-eabi/lib/thumb/v6-m/nofp/libg.a(lib_a-impure.o)
 .debug_line    0x000000000001bf25      0x16e /usr/lib/gcc/arm-none-eabi/9.2.1/../../../arm-none-eabi/lib/thumb/v6-m/nofp/libg.a(lib_a-malloc.o)
 .debug_line    0x000000000001c093      0x89d /usr/lib/gcc/arm-none-eabi/9.2.1/../../../arm-none-eabi/lib/thumb/v6-m/nofp/libg.a(lib_a-mallocr.o)
 .debug_line    0x000000000001c930      0x13d /usr/lib/gcc/arm-none-eabi/9.2.1/../../../arm-none-eabi/lib/thumb/v6-m/nofp/libg.a(lib_a-mlock.o)
 .debug_line    0x000000000001ca6d      0x182 /usr/lib/gcc/arm-none-eabi/9.2.1/../../../arm-none-eabi/lib/thumb/v6-m/nofp/libg.a(lib_a-sbrkr.o)
 .debug_line    0x000000000001cbef      0x1cc /usr/lib/gcc/arm-none-eabi/9.2.1/../../../arm-none-eabi/lib/thumb/v6-m/nofp/libg.a(lib_a-strlen-stub.o)
 .debug_line    0x000000000001cdbb      0x495 /usr/lib/gcc/arm-none-eabi/9.2.1/../../../arm-none-eabi/lib/thumb/v6-m/nofp/libg.a(lib_a-freer.o)
 .debug_line    0x000000000001d250      0x21b /usr/lib/gcc/arm-none-eabi/9.2.1/../../../arm-none-eabi/lib/thumb/v6-m/nofp/libg.a(lib_a-reent.o)

.debug_str      0x0000000000000000     0x876b
 .debug_str     0x0000000000000000      0x8fd CMakeFiles/main.dir/main.c.obj
                                        0xa21 (size before relaxing)
 .debug_str     0x00000000000008fd      0x67c CMakeFiles/main.dir/home/iwo/pico/pico-sdk/src/rp2_common/hardware_gpio/gpio.c.obj
                                        0x88f (size before relaxing)
 .debug_str     0x0000000000000f79      0x1c7 CMakeFiles/main.dir/home/iwo/pico/pico-sdk/src/rp2_common/hardware_claim/claim.c.obj
                                        0x372 (size before relaxing)
 .debug_str     0x0000000000001140       0x7e CMakeFiles/main.dir/home/iwo/pico/pico-sdk/src/rp2_common/pico_platform/platform.c.obj
                                        0x22e (size before relaxing)
 .debug_str     0x00000000000011be       0xe9 CMakeFiles/main.dir/home/iwo/pico/pico-sdk/src/rp2_common/hardware_sync/sync.c.obj
                                        0x359 (size before relaxing)
 .debug_str     0x00000000000012a7      0x70c CMakeFiles/main.dir/home/iwo/pico/pico-sdk/src/common/pico_time/time.c.obj
                                        0xf61 (size before relaxing)
 .debug_str     0x00000000000019b3      0x17f CMakeFiles/main.dir/home/iwo/pico/pico-sdk/src/rp2_common/hardware_timer/timer.c.obj
                                        0x679 (size before relaxing)
 .debug_str     0x0000000000001b32       0x39 CMakeFiles/main.dir/home/iwo/pico/pico-sdk/src/common/pico_sync/lock_core.c.obj
                                        0x265 (size before relaxing)
 .debug_str     0x0000000000001b6b      0x162 CMakeFiles/main.dir/home/iwo/pico/pico-sdk/src/common/pico_sync/mutex.c.obj
                                        0x5ce (size before relaxing)
 .debug_str     0x0000000000001ccd       0xd1 CMakeFiles/main.dir/home/iwo/pico/pico-sdk/src/common/pico_sync/critical_section.c.obj
                                        0x325 (size before relaxing)
 .debug_str     0x0000000000001d9e       0xf3 CMakeFiles/main.dir/home/iwo/pico/pico-sdk/src/common/pico_util/pheap.c.obj
                                        0x7f6 (size before relaxing)
 .debug_str     0x0000000000001e91      0x2d8 CMakeFiles/main.dir/home/iwo/pico/pico-sdk/src/rp2_common/pico_runtime/runtime.c.obj
                                        0xa5c (size before relaxing)
 .debug_str     0x0000000000002169      0x24e CMakeFiles/main.dir/home/iwo/pico/pico-sdk/src/rp2_common/hardware_clocks/clocks.c.obj
                                        0x64f (size before relaxing)
 .debug_str     0x00000000000023b7      0x2d5 CMakeFiles/main.dir/home/iwo/pico/pico-sdk/src/rp2_common/hardware_irq/irq.c.obj
                                        0x6ff (size before relaxing)
 .debug_str     0x000000000000268c       0x8c CMakeFiles/main.dir/home/iwo/pico/pico-sdk/src/rp2_common/hardware_pll/pll.c.obj
                                        0x2d9 (size before relaxing)
 .debug_str     0x0000000000002718      0x11c CMakeFiles/main.dir/home/iwo/pico/pico-sdk/src/rp2_common/hardware_watchdog/watchdog.c.obj
                                        0x724 (size before relaxing)
 .debug_str     0x0000000000002834       0x68 CMakeFiles/main.dir/home/iwo/pico/pico-sdk/src/rp2_common/hardware_xosc/xosc.c.obj
                                        0x22b (size before relaxing)
 .debug_str     0x000000000000289c      0x18a CMakeFiles/main.dir/home/iwo/pico/pico-sdk/src/rp2_common/pico_printf/printf.c.obj
                                        0x76b (size before relaxing)
 .debug_str     0x0000000000002a26       0x52 CMakeFiles/main.dir/home/iwo/pico/pico-sdk/src/rp2_common/pico_bit_ops/bit_ops_aeabi.S.obj
                                         0x7d (size before relaxing)
 .debug_str     0x0000000000002a78       0xc1 CMakeFiles/main.dir/home/iwo/pico/pico-sdk/src/rp2_common/pico_bootrom/bootrom.c.obj
                                        0x25b (size before relaxing)
 .debug_str     0x0000000000002b39       0x3e CMakeFiles/main.dir/home/iwo/pico/pico-sdk/src/rp2_common/pico_divider/divider.S.obj
                                         0x77 (size before relaxing)
 .debug_str     0x0000000000002b77       0x42 CMakeFiles/main.dir/home/iwo/pico/pico-sdk/src/rp2_common/pico_double/double_aeabi.S.obj
                                         0x7b (size before relaxing)
 .debug_str     0x0000000000002bb9       0x9a CMakeFiles/main.dir/home/iwo/pico/pico-sdk/src/rp2_common/pico_double/double_init_rom.c.obj
                                        0x66f (size before relaxing)
 .debug_str     0x0000000000002c53      0x2fa CMakeFiles/main.dir/home/iwo/pico/pico-sdk/src/rp2_common/pico_double/double_math.c.obj
                                        0x888 (size before relaxing)
 .debug_str     0x0000000000002f4d       0x48 CMakeFiles/main.dir/home/iwo/pico/pico-sdk/src/rp2_common/pico_double/double_v1_rom_shim.S.obj
                                         0x81 (size before relaxing)
 .debug_str     0x0000000000002f95       0x4d CMakeFiles/main.dir/home/iwo/pico/pico-sdk/src/rp2_common/pico_int64_ops/pico_int64_ops_aeabi.S.obj
                                         0x86 (size before relaxing)
 .debug_str     0x0000000000002fe2       0x40 CMakeFiles/main.dir/home/iwo/pico/pico-sdk/src/rp2_common/pico_float/float_aeabi.S.obj
                                         0x79 (size before relaxing)
 .debug_str     0x0000000000003022       0x7e CMakeFiles/main.dir/home/iwo/pico/pico-sdk/src/rp2_common/pico_float/float_init_rom.c.obj
                                        0x68b (size before relaxing)
 .debug_str     0x00000000000030a0       0x46 CMakeFiles/main.dir/home/iwo/pico/pico-sdk/src/rp2_common/pico_float/float_v1_rom_shim.S.obj
                                         0x7f (size before relaxing)
 .debug_str     0x00000000000030e6       0x9d CMakeFiles/main.dir/home/iwo/pico/pico-sdk/src/rp2_common/pico_malloc/pico_malloc.c.obj
                                        0x61c (size before relaxing)
 .debug_str     0x0000000000003183       0x44 CMakeFiles/main.dir/home/iwo/pico/pico-sdk/src/rp2_common/pico_mem_ops/mem_ops_aeabi.S.obj
                                         0x7d (size before relaxing)
 .debug_str     0x00000000000031c7       0x41 CMakeFiles/main.dir/home/iwo/pico/pico-sdk/src/rp2_common/pico_standard_link/crt0.S.obj
                                         0x7a (size before relaxing)
 .debug_str     0x0000000000003208      0x236 CMakeFiles/main.dir/home/iwo/pico/pico-sdk/src/rp2_common/pico_standard_link/binary_info.c.obj
                                        0x3da (size before relaxing)
 .debug_str     0x000000000000343e      0x2eb CMakeFiles/main.dir/home/iwo/pico/pico-sdk/src/rp2_common/pico_stdio/stdio.c.obj
                                        0xb70 (size before relaxing)
 .debug_str     0x0000000000003729      0x669 CMakeFiles/main.dir/home/iwo/pico/pico-sdk/src/rp2_common/pico_stdio_usb/reset_interface.c.obj
                                        0xcc3 (size before relaxing)
 .debug_str     0x0000000000003d92      0x218 CMakeFiles/main.dir/home/iwo/pico/pico-sdk/src/rp2_common/pico_stdio_usb/stdio_usb.c.obj
                                        0xc3e (size before relaxing)
 .debug_str     0x0000000000003faa      0xadf CMakeFiles/main.dir/home/iwo/pico/pico-sdk/src/rp2_common/pico_stdio_usb/stdio_usb_descriptors.c.obj
                                       0x13f4 (size before relaxing)
 .debug_str     0x0000000000004a89      0x91b CMakeFiles/main.dir/home/iwo/pico/pico-sdk/lib/tinyusb/src/portable/raspberrypi/rp2040/dcd_rp2040.c.obj
                                       0x1253 (size before relaxing)
 .debug_str     0x00000000000053a4      0x129 CMakeFiles/main.dir/home/iwo/pico/pico-sdk/lib/tinyusb/src/portable/raspberrypi/rp2040/rp2040_usb.c.obj
                                        0xc62 (size before relaxing)
 .debug_str     0x00000000000054cd      0x9c0 CMakeFiles/main.dir/home/iwo/pico/pico-sdk/lib/tinyusb/src/device/usbd.c.obj
                                       0x1ca5 (size before relaxing)
 .debug_str     0x0000000000005e8d       0xe8 CMakeFiles/main.dir/home/iwo/pico/pico-sdk/lib/tinyusb/src/device/usbd_control.c.obj
                                        0xa88 (size before relaxing)
 .debug_str     0x0000000000005f75      0x720 CMakeFiles/main.dir/home/iwo/pico/pico-sdk/lib/tinyusb/src/class/cdc/cdc_device.c.obj
                                       0x1abc (size before relaxing)
 .debug_str     0x0000000000006695       0xb6 CMakeFiles/main.dir/home/iwo/pico/pico-sdk/lib/tinyusb/src/tusb.c.obj
                                        0xd15 (size before relaxing)
 .debug_str     0x000000000000674b      0x388 CMakeFiles/main.dir/home/iwo/pico/pico-sdk/lib/tinyusb/src/common/tusb_fifo.c.obj
                                        0xbdc (size before relaxing)
 .debug_str     0x0000000000006ad3       0xbd CMakeFiles/main.dir/home/iwo/pico/pico-sdk/src/rp2_common/pico_unique_id/unique_id.c.obj
                                        0x28c (size before relaxing)
 .debug_str     0x0000000000006b90      0x2ff CMakeFiles/main.dir/home/iwo/pico/pico-sdk/src/rp2_common/hardware_flash/flash.c.obj
                                        0x5d9 (size before relaxing)
 .debug_str     0x0000000000006e8f      0x233 CMakeFiles/main.dir/home/iwo/pico/pico-sdk/src/rp2_common/hardware_spi/spi.c.obj
                                        0x5a5 (size before relaxing)
 .debug_str     0x00000000000070c2      0x292 CMakeFiles/main.dir/home/iwo/pico/pico-sdk/src/rp2_common/hardware_i2c/i2c.c.obj
                                        0x882 (size before relaxing)
 .debug_str     0x0000000000007354      0x4b7 examples/libexamples.a(LCD_2in_test.c.obj)
                                        0xf2c (size before relaxing)
 .debug_str     0x000000000000780b      0x1b8 lib/LCD/libLCD.a(LCD_2in.c.obj)
                                        0xa31 (size before relaxing)
 .debug_str     0x00000000000079c3       0xa4 lib/Infrared/libInfrared.a(Infrared.c.obj)
                                        0x8ce (size before relaxing)
 .debug_str     0x0000000000007a67      0x365 lib/GUI/libGUI.a(GUI_Paint.c.obj)
                                        0xe34 (size before relaxing)
 .debug_str     0x0000000000007dcc      0x102 lib/Fonts/libFonts.a(font20.c.obj)
                                        0x21a (size before relaxing)
 .debug_str     0x0000000000007ece      0x216 lib/Config/libConfig.a(DEV_Config.c.obj)
                                        0xe56 (size before relaxing)
 .debug_str     0x00000000000080e4       0xa3 /usr/lib/gcc/arm-none-eabi/9.2.1/thumb/v6-m/nofp/libgcc.a(_dvmd_tls.o)
 .debug_str     0x0000000000008187      0x129 /usr/lib/gcc/arm-none-eabi/9.2.1/../../../arm-none-eabi/lib/thumb/v6-m/nofp/libg.a(lib_a-impure.o)
                                        0x59d (size before relaxing)
 .debug_str     0x00000000000082b0       0xab /usr/lib/gcc/arm-none-eabi/9.2.1/../../../arm-none-eabi/lib/thumb/v6-m/nofp/libg.a(lib_a-malloc.o)
                                        0x5ce (size before relaxing)
 .debug_str     0x000000000000835b      0x24a /usr/lib/gcc/arm-none-eabi/9.2.1/../../../arm-none-eabi/lib/thumb/v6-m/nofp/libg.a(lib_a-mallocr.o)
                                        0x805 (size before relaxing)
 .debug_str     0x00000000000085a5       0x4c /usr/lib/gcc/arm-none-eabi/9.2.1/../../../arm-none-eabi/lib/thumb/v6-m/nofp/libg.a(lib_a-mlock.o)
                                        0x5c9 (size before relaxing)
 .debug_str     0x00000000000085f1       0x3c /usr/lib/gcc/arm-none-eabi/9.2.1/../../../arm-none-eabi/lib/thumb/v6-m/nofp/libg.a(lib_a-sbrkr.o)
                                        0x5e0 (size before relaxing)
 .debug_str     0x000000000000862d       0xac /usr/lib/gcc/arm-none-eabi/9.2.1/../../../arm-none-eabi/lib/thumb/v6-m/nofp/libg.a(lib_a-strlen-stub.o)
                                        0x5c6 (size before relaxing)
 .debug_str     0x00000000000086d9       0x34 /usr/lib/gcc/arm-none-eabi/9.2.1/../../../arm-none-eabi/lib/thumb/v6-m/nofp/libg.a(lib_a-freer.o)
                                        0x77e (size before relaxing)
 .debug_str     0x000000000000870d       0x5e /usr/lib/gcc/arm-none-eabi/9.2.1/../../../arm-none-eabi/lib/thumb/v6-m/nofp/libg.a(lib_a-reent.o)
                                        0x5d9 (size before relaxing)

.debug_frame    0x0000000000000000     0x3700
 .debug_frame   0x0000000000000000       0x28 CMakeFiles/main.dir/main.c.obj
 .debug_frame   0x0000000000000028      0x1e8 CMakeFiles/main.dir/home/iwo/pico/pico-sdk/src/rp2_common/hardware_gpio/gpio.c.obj
 .debug_frame   0x0000000000000210       0x9c CMakeFiles/main.dir/home/iwo/pico/pico-sdk/src/rp2_common/hardware_claim/claim.c.obj
 .debug_frame   0x00000000000002ac       0x38 CMakeFiles/main.dir/home/iwo/pico/pico-sdk/src/rp2_common/pico_platform/platform.c.obj
 .debug_frame   0x00000000000002e4       0xc4 CMakeFiles/main.dir/home/iwo/pico/pico-sdk/src/rp2_common/hardware_sync/sync.c.obj
 .debug_frame   0x00000000000003a8      0x294 CMakeFiles/main.dir/home/iwo/pico/pico-sdk/src/common/pico_time/time.c.obj
 .debug_frame   0x000000000000063c      0x13c CMakeFiles/main.dir/home/iwo/pico/pico-sdk/src/rp2_common/hardware_timer/timer.c.obj
 .debug_frame   0x0000000000000778       0x20 CMakeFiles/main.dir/home/iwo/pico/pico-sdk/src/common/pico_sync/lock_core.c.obj
 .debug_frame   0x0000000000000798      0x1a4 CMakeFiles/main.dir/home/iwo/pico/pico-sdk/src/common/pico_sync/mutex.c.obj
 .debug_frame   0x000000000000093c       0x50 CMakeFiles/main.dir/home/iwo/pico/pico-sdk/src/common/pico_sync/critical_section.c.obj
 .debug_frame   0x000000000000098c      0x164 CMakeFiles/main.dir/home/iwo/pico/pico-sdk/src/common/pico_util/pheap.c.obj
 .debug_frame   0x0000000000000af0       0xdc CMakeFiles/main.dir/home/iwo/pico/pico-sdk/src/rp2_common/pico_runtime/runtime.c.obj
 .debug_frame   0x0000000000000bcc      0x12c CMakeFiles/main.dir/home/iwo/pico/pico-sdk/src/rp2_common/hardware_clocks/clocks.c.obj
 .debug_frame   0x0000000000000cf8      0x188 CMakeFiles/main.dir/home/iwo/pico/pico-sdk/src/rp2_common/hardware_irq/irq.c.obj
 .debug_frame   0x0000000000000e80       0x44 CMakeFiles/main.dir/home/iwo/pico/pico-sdk/src/rp2_common/hardware_pll/pll.c.obj
 .debug_frame   0x0000000000000ec4       0xa8 CMakeFiles/main.dir/home/iwo/pico/pico-sdk/src/rp2_common/hardware_watchdog/watchdog.c.obj
 .debug_frame   0x0000000000000f6c       0x40 CMakeFiles/main.dir/home/iwo/pico/pico-sdk/src/rp2_common/hardware_xosc/xosc.c.obj
 .debug_frame   0x0000000000000fac      0x1f8 CMakeFiles/main.dir/home/iwo/pico/pico-sdk/src/rp2_common/pico_printf/printf.c.obj
 .debug_frame   0x00000000000011a4       0x64 CMakeFiles/main.dir/home/iwo/pico/pico-sdk/src/rp2_common/pico_bootrom/bootrom.c.obj
 .debug_frame   0x0000000000001208       0x2c CMakeFiles/main.dir/home/iwo/pico/pico-sdk/src/rp2_common/pico_double/double_init_rom.c.obj
 .debug_frame   0x0000000000001234      0x440 CMakeFiles/main.dir/home/iwo/pico/pico-sdk/src/rp2_common/pico_double/double_math.c.obj
 .debug_frame   0x0000000000001674       0x2c CMakeFiles/main.dir/home/iwo/pico/pico-sdk/src/rp2_common/pico_float/float_init_rom.c.obj
 .debug_frame   0x00000000000016a0       0x58 CMakeFiles/main.dir/home/iwo/pico/pico-sdk/src/rp2_common/pico_malloc/pico_malloc.c.obj
 .debug_frame   0x00000000000016f8      0x270 CMakeFiles/main.dir/home/iwo/pico/pico-sdk/src/rp2_common/pico_stdio/stdio.c.obj
 .debug_frame   0x0000000000001968       0x94 CMakeFiles/main.dir/home/iwo/pico/pico-sdk/src/rp2_common/pico_stdio_usb/reset_interface.c.obj
 .debug_frame   0x00000000000019fc       0xbc CMakeFiles/main.dir/home/iwo/pico/pico-sdk/src/rp2_common/pico_stdio_usb/stdio_usb.c.obj
 .debug_frame   0x0000000000001ab8       0x48 CMakeFiles/main.dir/home/iwo/pico/pico-sdk/src/rp2_common/pico_stdio_usb/stdio_usb_descriptors.c.obj
 .debug_frame   0x0000000000001b00      0x238 CMakeFiles/main.dir/home/iwo/pico/pico-sdk/lib/tinyusb/src/portable/raspberrypi/rp2040/dcd_rp2040.c.obj
 .debug_frame   0x0000000000001d38       0xf8 CMakeFiles/main.dir/home/iwo/pico/pico-sdk/lib/tinyusb/src/portable/raspberrypi/rp2040/rp2040_usb.c.obj
 .debug_frame   0x0000000000001e30      0x3b8 CMakeFiles/main.dir/home/iwo/pico/pico-sdk/lib/tinyusb/src/device/usbd.c.obj
 .debug_frame   0x00000000000021e8       0xcc CMakeFiles/main.dir/home/iwo/pico/pico-sdk/lib/tinyusb/src/device/usbd_control.c.obj
 .debug_frame   0x00000000000022b4      0x1f4 CMakeFiles/main.dir/home/iwo/pico/pico-sdk/lib/tinyusb/src/class/cdc/cdc_device.c.obj
 .debug_frame   0x00000000000024a8       0xd4 CMakeFiles/main.dir/home/iwo/pico/pico-sdk/lib/tinyusb/src/tusb.c.obj
 .debug_frame   0x000000000000257c      0x398 CMakeFiles/main.dir/home/iwo/pico/pico-sdk/lib/tinyusb/src/common/tusb_fifo.c.obj
 .debug_frame   0x0000000000002914       0x58 CMakeFiles/main.dir/home/iwo/pico/pico-sdk/src/rp2_common/pico_unique_id/unique_id.c.obj
 .debug_frame   0x000000000000296c       0xe4 CMakeFiles/main.dir/home/iwo/pico/pico-sdk/src/rp2_common/hardware_flash/flash.c.obj
 .debug_frame   0x0000000000002a50      0x134 CMakeFiles/main.dir/home/iwo/pico/pico-sdk/src/rp2_common/hardware_spi/spi.c.obj
 .debug_frame   0x0000000000002b84      0x1a8 CMakeFiles/main.dir/home/iwo/pico/pico-sdk/src/rp2_common/hardware_i2c/i2c.c.obj
 .debug_frame   0x0000000000002d2c      0x208 examples/libexamples.a(LCD_2in_test.c.obj)
 .debug_frame   0x0000000000002f34      0x164 lib/LCD/libLCD.a(LCD_2in.c.obj)
 .debug_frame   0x0000000000003098       0x50 lib/Infrared/libInfrared.a(Infrared.c.obj)
 .debug_frame   0x00000000000030e8      0x310 lib/GUI/libGUI.a(GUI_Paint.c.obj)
 .debug_frame   0x00000000000033f8      0x16c lib/Config/libConfig.a(DEV_Config.c.obj)
 .debug_frame   0x0000000000003564       0x40 /usr/lib/gcc/arm-none-eabi/9.2.1/../../../arm-none-eabi/lib/thumb/v6-m/nofp/libg.a(lib_a-malloc.o)
 .debug_frame   0x00000000000035a4       0x3c /usr/lib/gcc/arm-none-eabi/9.2.1/../../../arm-none-eabi/lib/thumb/v6-m/nofp/libg.a(lib_a-mallocr.o)
 .debug_frame   0x00000000000035e0       0x30 /usr/lib/gcc/arm-none-eabi/9.2.1/../../../arm-none-eabi/lib/thumb/v6-m/nofp/libg.a(lib_a-mlock.o)
 .debug_frame   0x0000000000003610       0x2c /usr/lib/gcc/arm-none-eabi/9.2.1/../../../arm-none-eabi/lib/thumb/v6-m/nofp/libg.a(lib_a-sbrkr.o)
 .debug_frame   0x000000000000363c       0x28 /usr/lib/gcc/arm-none-eabi/9.2.1/../../../arm-none-eabi/lib/thumb/v6-m/nofp/libg.a(lib_a-strlen-stub.o)
 .debug_frame   0x0000000000003664       0x54 /usr/lib/gcc/arm-none-eabi/9.2.1/../../../arm-none-eabi/lib/thumb/v6-m/nofp/libg.a(lib_a-freer.o)
 .debug_frame   0x00000000000036b8       0x48 /usr/lib/gcc/arm-none-eabi/9.2.1/../../../arm-none-eabi/lib/thumb/v6-m/nofp/libg.a(lib_a-reent.o)

.debug_loc      0x0000000000000000    0x230ac
 .debug_loc     0x0000000000000000      0xede CMakeFiles/main.dir/home/iwo/pico/pico-sdk/src/rp2_common/hardware_gpio/gpio.c.obj
 .debug_loc     0x0000000000000ede      0x45f CMakeFiles/main.dir/home/iwo/pico/pico-sdk/src/rp2_common/hardware_claim/claim.c.obj
 .debug_loc     0x000000000000133d       0xe9 CMakeFiles/main.dir/home/iwo/pico/pico-sdk/src/rp2_common/pico_platform/platform.c.obj
 .debug_loc     0x0000000000001426      0x233 CMakeFiles/main.dir/home/iwo/pico/pico-sdk/src/rp2_common/hardware_sync/sync.c.obj
 .debug_loc     0x0000000000001659     0x2e1d CMakeFiles/main.dir/home/iwo/pico/pico-sdk/src/common/pico_time/time.c.obj
 .debug_loc     0x0000000000004476      0x952 CMakeFiles/main.dir/home/iwo/pico/pico-sdk/src/rp2_common/hardware_timer/timer.c.obj
 .debug_loc     0x0000000000004dc8       0x60 CMakeFiles/main.dir/home/iwo/pico/pico-sdk/src/common/pico_sync/lock_core.c.obj
 .debug_loc     0x0000000000004e28     0x142d CMakeFiles/main.dir/home/iwo/pico/pico-sdk/src/common/pico_sync/mutex.c.obj
 .debug_loc     0x0000000000006255       0xda CMakeFiles/main.dir/home/iwo/pico/pico-sdk/src/common/pico_sync/critical_section.c.obj
 .debug_loc     0x000000000000632f     0x1412 CMakeFiles/main.dir/home/iwo/pico/pico-sdk/src/common/pico_util/pheap.c.obj
 .debug_loc     0x0000000000007741      0x3f0 CMakeFiles/main.dir/home/iwo/pico/pico-sdk/src/rp2_common/pico_runtime/runtime.c.obj
 .debug_loc     0x0000000000007b31      0x805 CMakeFiles/main.dir/home/iwo/pico/pico-sdk/src/rp2_common/hardware_clocks/clocks.c.obj
 .debug_loc     0x0000000000008336     0x1296 CMakeFiles/main.dir/home/iwo/pico/pico-sdk/src/rp2_common/hardware_irq/irq.c.obj
 .debug_loc     0x00000000000095cc      0x300 CMakeFiles/main.dir/home/iwo/pico/pico-sdk/src/rp2_common/hardware_pll/pll.c.obj
 .debug_loc     0x00000000000098cc      0x2ec CMakeFiles/main.dir/home/iwo/pico/pico-sdk/src/rp2_common/hardware_watchdog/watchdog.c.obj
 .debug_loc     0x0000000000009bb8       0x71 CMakeFiles/main.dir/home/iwo/pico/pico-sdk/src/rp2_common/hardware_xosc/xosc.c.obj
 .debug_loc     0x0000000000009c29     0x210c CMakeFiles/main.dir/home/iwo/pico/pico-sdk/src/rp2_common/pico_printf/printf.c.obj
 .debug_loc     0x000000000000bd35      0x1a1 CMakeFiles/main.dir/home/iwo/pico/pico-sdk/src/rp2_common/pico_bootrom/bootrom.c.obj
 .debug_loc     0x000000000000bed6       0x59 CMakeFiles/main.dir/home/iwo/pico/pico-sdk/src/rp2_common/pico_double/double_init_rom.c.obj
 .debug_loc     0x000000000000bf2f     0x68a2 CMakeFiles/main.dir/home/iwo/pico/pico-sdk/src/rp2_common/pico_double/double_math.c.obj
 .debug_loc     0x00000000000127d1       0x73 CMakeFiles/main.dir/home/iwo/pico/pico-sdk/src/rp2_common/pico_float/float_init_rom.c.obj
 .debug_loc     0x0000000000012844      0x14c CMakeFiles/main.dir/home/iwo/pico/pico-sdk/src/rp2_common/pico_malloc/pico_malloc.c.obj
 .debug_loc     0x0000000000012990      0xbad CMakeFiles/main.dir/home/iwo/pico/pico-sdk/src/rp2_common/pico_stdio/stdio.c.obj
 .debug_loc     0x000000000001353d      0x376 CMakeFiles/main.dir/home/iwo/pico/pico-sdk/src/rp2_common/pico_stdio_usb/reset_interface.c.obj
 .debug_loc     0x00000000000138b3      0x558 CMakeFiles/main.dir/home/iwo/pico/pico-sdk/src/rp2_common/pico_stdio_usb/stdio_usb.c.obj
 .debug_loc     0x0000000000013e0b      0x109 CMakeFiles/main.dir/home/iwo/pico/pico-sdk/src/rp2_common/pico_stdio_usb/stdio_usb_descriptors.c.obj
 .debug_loc     0x0000000000013f14      0xaa9 CMakeFiles/main.dir/home/iwo/pico/pico-sdk/lib/tinyusb/src/portable/raspberrypi/rp2040/dcd_rp2040.c.obj
 .debug_loc     0x00000000000149bd      0x694 CMakeFiles/main.dir/home/iwo/pico/pico-sdk/lib/tinyusb/src/portable/raspberrypi/rp2040/rp2040_usb.c.obj
 .debug_loc     0x0000000000015051     0x27a3 CMakeFiles/main.dir/home/iwo/pico/pico-sdk/lib/tinyusb/src/device/usbd.c.obj
 .debug_loc     0x00000000000177f4      0x5c9 CMakeFiles/main.dir/home/iwo/pico/pico-sdk/lib/tinyusb/src/device/usbd_control.c.obj
 .debug_loc     0x0000000000017dbd     0x115e CMakeFiles/main.dir/home/iwo/pico/pico-sdk/lib/tinyusb/src/class/cdc/cdc_device.c.obj
 .debug_loc     0x0000000000018f1b      0x8a3 CMakeFiles/main.dir/home/iwo/pico/pico-sdk/lib/tinyusb/src/tusb.c.obj
 .debug_loc     0x00000000000197be     0x284f CMakeFiles/main.dir/home/iwo/pico/pico-sdk/lib/tinyusb/src/common/tusb_fifo.c.obj
 .debug_loc     0x000000000001c00d       0xff CMakeFiles/main.dir/home/iwo/pico/pico-sdk/src/rp2_common/pico_unique_id/unique_id.c.obj
 .debug_loc     0x000000000001c10c      0x909 CMakeFiles/main.dir/home/iwo/pico/pico-sdk/src/rp2_common/hardware_flash/flash.c.obj
 .debug_loc     0x000000000001ca15      0xa71 CMakeFiles/main.dir/home/iwo/pico/pico-sdk/src/rp2_common/hardware_spi/spi.c.obj
 .debug_loc     0x000000000001d486     0x136f CMakeFiles/main.dir/home/iwo/pico/pico-sdk/src/rp2_common/hardware_i2c/i2c.c.obj
 .debug_loc     0x000000000001e7f5      0x856 examples/libexamples.a(LCD_2in_test.c.obj)
 .debug_loc     0x000000000001f04b      0x43a lib/LCD/libLCD.a(LCD_2in.c.obj)
 .debug_loc     0x000000000001f485      0x193 lib/Infrared/libInfrared.a(Infrared.c.obj)
 .debug_loc     0x000000000001f618     0x1c34 lib/GUI/libGUI.a(GUI_Paint.c.obj)
 .debug_loc     0x000000000002124c      0x7ff lib/Config/libConfig.a(DEV_Config.c.obj)
 .debug_loc     0x0000000000021a4b       0x64 /usr/lib/gcc/arm-none-eabi/9.2.1/../../../arm-none-eabi/lib/thumb/v6-m/nofp/libg.a(lib_a-malloc.o)
 .debug_loc     0x0000000000021aaf      0xef3 /usr/lib/gcc/arm-none-eabi/9.2.1/../../../arm-none-eabi/lib/thumb/v6-m/nofp/libg.a(lib_a-mallocr.o)
 .debug_loc     0x00000000000229a2       0x79 /usr/lib/gcc/arm-none-eabi/9.2.1/../../../arm-none-eabi/lib/thumb/v6-m/nofp/libg.a(lib_a-sbrkr.o)
 .debug_loc     0x0000000000022a1b       0x90 /usr/lib/gcc/arm-none-eabi/9.2.1/../../../arm-none-eabi/lib/thumb/v6-m/nofp/libg.a(lib_a-strlen-stub.o)
 .debug_loc     0x0000000000022aab      0x4fd /usr/lib/gcc/arm-none-eabi/9.2.1/../../../arm-none-eabi/lib/thumb/v6-m/nofp/libg.a(lib_a-freer.o)
 .debug_loc     0x0000000000022fa8      0x104 /usr/lib/gcc/arm-none-eabi/9.2.1/../../../arm-none-eabi/lib/thumb/v6-m/nofp/libg.a(lib_a-reent.o)
